
archiv:     file format elf64-x86-64


Disassembly of section .init:

0000000000400b30 <_init>:
  400b30:	48 83 ec 08          	sub    rsp,0x8
  400b34:	e8 f3 01 00 00       	call   400d2c <call_gmon_start>
  400b39:	48 83 c4 08          	add    rsp,0x8
  400b3d:	c3                   	ret    

Disassembly of section .plt:

0000000000400b40 <MD5_Init@plt-0x10>:
  400b40:	ff 35 32 39 20 00    	push   QWORD PTR [rip+0x203932]        # 604478 <_GLOBAL_OFFSET_TABLE_+0x8>
  400b46:	ff 25 34 39 20 00    	jmp    QWORD PTR [rip+0x203934]        # 604480 <_GLOBAL_OFFSET_TABLE_+0x10>
  400b4c:	0f 1f 40 00          	nop    DWORD PTR [rax+0x0]

0000000000400b50 <MD5_Init@plt>:
  400b50:	ff 25 32 39 20 00    	jmp    QWORD PTR [rip+0x203932]        # 604488 <_GLOBAL_OFFSET_TABLE_+0x18>
  400b56:	68 00 00 00 00       	push   0x0
  400b5b:	e9 e0 ff ff ff       	jmp    400b40 <_init+0x10>

0000000000400b60 <printf@plt>:
  400b60:	ff 25 2a 39 20 00    	jmp    QWORD PTR [rip+0x20392a]        # 604490 <_GLOBAL_OFFSET_TABLE_+0x20>
  400b66:	68 01 00 00 00       	push   0x1
  400b6b:	e9 d0 ff ff ff       	jmp    400b40 <_init+0x10>

0000000000400b70 <ftell@plt>:
  400b70:	ff 25 22 39 20 00    	jmp    QWORD PTR [rip+0x203922]        # 604498 <_GLOBAL_OFFSET_TABLE_+0x28>
  400b76:	68 02 00 00 00       	push   0x2
  400b7b:	e9 c0 ff ff ff       	jmp    400b40 <_init+0x10>

0000000000400b80 <MD5_Update@plt>:
  400b80:	ff 25 1a 39 20 00    	jmp    QWORD PTR [rip+0x20391a]        # 6044a0 <_GLOBAL_OFFSET_TABLE_+0x30>
  400b86:	68 03 00 00 00       	push   0x3
  400b8b:	e9 b0 ff ff ff       	jmp    400b40 <_init+0x10>

0000000000400b90 <puts@plt>:
  400b90:	ff 25 12 39 20 00    	jmp    QWORD PTR [rip+0x203912]        # 6044a8 <_GLOBAL_OFFSET_TABLE_+0x38>
  400b96:	68 04 00 00 00       	push   0x4
  400b9b:	e9 a0 ff ff ff       	jmp    400b40 <_init+0x10>

0000000000400ba0 <fseek@plt>:
  400ba0:	ff 25 0a 39 20 00    	jmp    QWORD PTR [rip+0x20390a]        # 6044b0 <_GLOBAL_OFFSET_TABLE_+0x40>
  400ba6:	68 05 00 00 00       	push   0x5
  400bab:	e9 90 ff ff ff       	jmp    400b40 <_init+0x10>

0000000000400bb0 <exit@plt>:
  400bb0:	ff 25 02 39 20 00    	jmp    QWORD PTR [rip+0x203902]        # 6044b8 <_GLOBAL_OFFSET_TABLE_+0x48>
  400bb6:	68 06 00 00 00       	push   0x6
  400bbb:	e9 80 ff ff ff       	jmp    400b40 <_init+0x10>

0000000000400bc0 <putchar@plt>:
  400bc0:	ff 25 fa 38 20 00    	jmp    QWORD PTR [rip+0x2038fa]        # 6044c0 <_GLOBAL_OFFSET_TABLE_+0x50>
  400bc6:	68 07 00 00 00       	push   0x7
  400bcb:	e9 70 ff ff ff       	jmp    400b40 <_init+0x10>

0000000000400bd0 <fopen@plt>:
  400bd0:	ff 25 f2 38 20 00    	jmp    QWORD PTR [rip+0x2038f2]        # 6044c8 <_GLOBAL_OFFSET_TABLE_+0x58>
  400bd6:	68 08 00 00 00       	push   0x8
  400bdb:	e9 60 ff ff ff       	jmp    400b40 <_init+0x10>

0000000000400be0 <__libc_start_main@plt>:
  400be0:	ff 25 ea 38 20 00    	jmp    QWORD PTR [rip+0x2038ea]        # 6044d0 <_GLOBAL_OFFSET_TABLE_+0x60>
  400be6:	68 09 00 00 00       	push   0x9
  400beb:	e9 50 ff ff ff       	jmp    400b40 <_init+0x10>

0000000000400bf0 <SHA1_Init@plt>:
  400bf0:	ff 25 e2 38 20 00    	jmp    QWORD PTR [rip+0x2038e2]        # 6044d8 <_GLOBAL_OFFSET_TABLE_+0x68>
  400bf6:	68 0a 00 00 00       	push   0xa
  400bfb:	e9 40 ff ff ff       	jmp    400b40 <_init+0x10>

0000000000400c00 <strlen@plt>:
  400c00:	ff 25 da 38 20 00    	jmp    QWORD PTR [rip+0x2038da]        # 6044e0 <_GLOBAL_OFFSET_TABLE_+0x70>
  400c06:	68 0b 00 00 00       	push   0xb
  400c0b:	e9 30 ff ff ff       	jmp    400b40 <_init+0x10>

0000000000400c10 <RC4@plt>:
  400c10:	ff 25 d2 38 20 00    	jmp    QWORD PTR [rip+0x2038d2]        # 6044e8 <_GLOBAL_OFFSET_TABLE_+0x78>
  400c16:	68 0c 00 00 00       	push   0xc
  400c1b:	e9 20 ff ff ff       	jmp    400b40 <_init+0x10>

0000000000400c20 <strrchr@plt>:
  400c20:	ff 25 ca 38 20 00    	jmp    QWORD PTR [rip+0x2038ca]        # 6044f0 <_GLOBAL_OFFSET_TABLE_+0x80>
  400c26:	68 0d 00 00 00       	push   0xd
  400c2b:	e9 10 ff ff ff       	jmp    400b40 <_init+0x10>

0000000000400c30 <MD5_Final@plt>:
  400c30:	ff 25 c2 38 20 00    	jmp    QWORD PTR [rip+0x2038c2]        # 6044f8 <_GLOBAL_OFFSET_TABLE_+0x88>
  400c36:	68 0e 00 00 00       	push   0xe
  400c3b:	e9 00 ff ff ff       	jmp    400b40 <_init+0x10>

0000000000400c40 <memcpy@plt>:
  400c40:	ff 25 ba 38 20 00    	jmp    QWORD PTR [rip+0x2038ba]        # 604500 <_GLOBAL_OFFSET_TABLE_+0x90>
  400c46:	68 0f 00 00 00       	push   0xf
  400c4b:	e9 f0 fe ff ff       	jmp    400b40 <_init+0x10>

0000000000400c50 <SHA1_Final@plt>:
  400c50:	ff 25 b2 38 20 00    	jmp    QWORD PTR [rip+0x2038b2]        # 604508 <_GLOBAL_OFFSET_TABLE_+0x98>
  400c56:	68 10 00 00 00       	push   0x10
  400c5b:	e9 e0 fe ff ff       	jmp    400b40 <_init+0x10>

0000000000400c60 <fread@plt>:
  400c60:	ff 25 aa 38 20 00    	jmp    QWORD PTR [rip+0x2038aa]        # 604510 <_GLOBAL_OFFSET_TABLE_+0xa0>
  400c66:	68 11 00 00 00       	push   0x11
  400c6b:	e9 d0 fe ff ff       	jmp    400b40 <_init+0x10>

0000000000400c70 <strcmp@plt>:
  400c70:	ff 25 a2 38 20 00    	jmp    QWORD PTR [rip+0x2038a2]        # 604518 <_GLOBAL_OFFSET_TABLE_+0xa8>
  400c76:	68 12 00 00 00       	push   0x12
  400c7b:	e9 c0 fe ff ff       	jmp    400b40 <_init+0x10>

0000000000400c80 <calloc@plt>:
  400c80:	ff 25 9a 38 20 00    	jmp    QWORD PTR [rip+0x20389a]        # 604520 <_GLOBAL_OFFSET_TABLE_+0xb0>
  400c86:	68 13 00 00 00       	push   0x13
  400c8b:	e9 b0 fe ff ff       	jmp    400b40 <_init+0x10>

0000000000400c90 <SHA1_Update@plt>:
  400c90:	ff 25 92 38 20 00    	jmp    QWORD PTR [rip+0x203892]        # 604528 <_GLOBAL_OFFSET_TABLE_+0xb8>
  400c96:	68 14 00 00 00       	push   0x14
  400c9b:	e9 a0 fe ff ff       	jmp    400b40 <_init+0x10>

0000000000400ca0 <fclose@plt>:
  400ca0:	ff 25 8a 38 20 00    	jmp    QWORD PTR [rip+0x20388a]        # 604530 <_GLOBAL_OFFSET_TABLE_+0xc0>
  400ca6:	68 15 00 00 00       	push   0x15
  400cab:	e9 90 fe ff ff       	jmp    400b40 <_init+0x10>

0000000000400cb0 <strncpy@plt>:
  400cb0:	ff 25 82 38 20 00    	jmp    QWORD PTR [rip+0x203882]        # 604538 <_GLOBAL_OFFSET_TABLE_+0xc8>
  400cb6:	68 16 00 00 00       	push   0x16
  400cbb:	e9 80 fe ff ff       	jmp    400b40 <_init+0x10>

0000000000400cc0 <access@plt>:
  400cc0:	ff 25 7a 38 20 00    	jmp    QWORD PTR [rip+0x20387a]        # 604540 <_GLOBAL_OFFSET_TABLE_+0xd0>
  400cc6:	68 17 00 00 00       	push   0x17
  400ccb:	e9 70 fe ff ff       	jmp    400b40 <_init+0x10>

0000000000400cd0 <RC4_set_key@plt>:
  400cd0:	ff 25 72 38 20 00    	jmp    QWORD PTR [rip+0x203872]        # 604548 <_GLOBAL_OFFSET_TABLE_+0xd8>
  400cd6:	68 18 00 00 00       	push   0x18
  400cdb:	e9 60 fe ff ff       	jmp    400b40 <_init+0x10>

0000000000400ce0 <fwrite@plt>:
  400ce0:	ff 25 6a 38 20 00    	jmp    QWORD PTR [rip+0x20386a]        # 604550 <_GLOBAL_OFFSET_TABLE_+0xe0>
  400ce6:	68 19 00 00 00       	push   0x19
  400ceb:	e9 50 fe ff ff       	jmp    400b40 <_init+0x10>

0000000000400cf0 <fflush@plt>:
  400cf0:	ff 25 62 38 20 00    	jmp    QWORD PTR [rip+0x203862]        # 604558 <_GLOBAL_OFFSET_TABLE_+0xe8>
  400cf6:	68 1a 00 00 00       	push   0x1a
  400cfb:	e9 40 fe ff ff       	jmp    400b40 <_init+0x10>

Disassembly of section .text:

0000000000400d00 <_start>:
  400d00:	31 ed                	xor    ebp,ebp
  400d02:	49 89 d1             	mov    r9,rdx
  400d05:	5e                   	pop    rsi
  400d06:	48 89 e2             	mov    rdx,rsp
  400d09:	48 83 e4 f0          	and    rsp,0xfffffffffffffff0
  400d0d:	50                   	push   rax
  400d0e:	54                   	push   rsp
  400d0f:	49 c7 c0 d0 38 40 00 	mov    r8,0x4038d0
  400d16:	48 c7 c1 e0 38 40 00 	mov    rcx,0x4038e0
  400d1d:	48 c7 c7 65 2b 40 00 	mov    rdi,0x402b65
  400d24:	e8 b7 fe ff ff       	call   400be0 <__libc_start_main@plt>
  400d29:	f4                   	hlt    
  400d2a:	90                   	nop
  400d2b:	90                   	nop

0000000000400d2c <call_gmon_start>:
  400d2c:	48 83 ec 08          	sub    rsp,0x8
  400d30:	48 8b 05 31 37 20 00 	mov    rax,QWORD PTR [rip+0x203731]        # 604468 <_DYNAMIC+0x200>
  400d37:	48 85 c0             	test   rax,rax
  400d3a:	74 02                	je     400d3e <call_gmon_start+0x12>
  400d3c:	ff d0                	call   rax
  400d3e:	48 83 c4 08          	add    rsp,0x8
  400d42:	c3                   	ret    
  400d43:	90                   	nop
  400d44:	90                   	nop
  400d45:	90                   	nop
  400d46:	90                   	nop
  400d47:	90                   	nop
  400d48:	90                   	nop
  400d49:	90                   	nop
  400d4a:	90                   	nop
  400d4b:	90                   	nop
  400d4c:	90                   	nop
  400d4d:	90                   	nop
  400d4e:	90                   	nop
  400d4f:	90                   	nop

0000000000400d50 <deregister_tm_clones>:
  400d50:	b8 77 45 60 00       	mov    eax,0x604577
  400d55:	55                   	push   rbp
  400d56:	48 2d 70 45 60 00    	sub    rax,0x604570
  400d5c:	48 83 f8 0e          	cmp    rax,0xe
  400d60:	48 89 e5             	mov    rbp,rsp
  400d63:	77 02                	ja     400d67 <deregister_tm_clones+0x17>
  400d65:	5d                   	pop    rbp
  400d66:	c3                   	ret    
  400d67:	b8 00 00 00 00       	mov    eax,0x0
  400d6c:	48 85 c0             	test   rax,rax
  400d6f:	74 f4                	je     400d65 <deregister_tm_clones+0x15>
  400d71:	5d                   	pop    rbp
  400d72:	bf 70 45 60 00       	mov    edi,0x604570
  400d77:	ff e0                	jmp    rax
  400d79:	0f 1f 80 00 00 00 00 	nop    DWORD PTR [rax+0x0]

0000000000400d80 <register_tm_clones>:
  400d80:	b8 70 45 60 00       	mov    eax,0x604570
  400d85:	55                   	push   rbp
  400d86:	48 2d 70 45 60 00    	sub    rax,0x604570
  400d8c:	48 c1 f8 03          	sar    rax,0x3
  400d90:	48 89 e5             	mov    rbp,rsp
  400d93:	48 89 c2             	mov    rdx,rax
  400d96:	48 c1 ea 3f          	shr    rdx,0x3f
  400d9a:	48 01 d0             	add    rax,rdx
  400d9d:	48 89 c6             	mov    rsi,rax
  400da0:	48 d1 fe             	sar    rsi,1
  400da3:	75 02                	jne    400da7 <register_tm_clones+0x27>
  400da5:	5d                   	pop    rbp
  400da6:	c3                   	ret    
  400da7:	ba 00 00 00 00       	mov    edx,0x0
  400dac:	48 85 d2             	test   rdx,rdx
  400daf:	74 f4                	je     400da5 <register_tm_clones+0x25>
  400db1:	5d                   	pop    rbp
  400db2:	bf 70 45 60 00       	mov    edi,0x604570
  400db7:	ff e2                	jmp    rdx
  400db9:	0f 1f 80 00 00 00 00 	nop    DWORD PTR [rax+0x0]

0000000000400dc0 <__do_global_dtors_aux>:
  400dc0:	80 3d c1 37 20 00 00 	cmp    BYTE PTR [rip+0x2037c1],0x0        # 604588 <completed.6092>
  400dc7:	75 11                	jne    400dda <__do_global_dtors_aux+0x1a>
  400dc9:	55                   	push   rbp
  400dca:	48 89 e5             	mov    rbp,rsp
  400dcd:	e8 7e ff ff ff       	call   400d50 <deregister_tm_clones>
  400dd2:	5d                   	pop    rbp
  400dd3:	c6 05 ae 37 20 00 01 	mov    BYTE PTR [rip+0x2037ae],0x1        # 604588 <completed.6092>
  400dda:	f3 c3                	repz ret 
  400ddc:	0f 1f 40 00          	nop    DWORD PTR [rax+0x0]

0000000000400de0 <frame_dummy>:
  400de0:	48 83 3d 78 34 20 00 	cmp    QWORD PTR [rip+0x203478],0x0        # 604260 <__JCR_END__>
  400de7:	00 
  400de8:	74 1b                	je     400e05 <frame_dummy+0x25>
  400dea:	b8 00 00 00 00       	mov    eax,0x0
  400def:	48 85 c0             	test   rax,rax
  400df2:	74 11                	je     400e05 <frame_dummy+0x25>
  400df4:	55                   	push   rbp
  400df5:	bf 60 42 60 00       	mov    edi,0x604260
  400dfa:	48 89 e5             	mov    rbp,rsp
  400dfd:	ff d0                	call   rax
  400dff:	5d                   	pop    rbp
  400e00:	e9 7b ff ff ff       	jmp    400d80 <register_tm_clones>
  400e05:	e9 76 ff ff ff       	jmp    400d80 <register_tm_clones>
  400e0a:	90                   	nop
  400e0b:	90                   	nop

0000000000400e0c <sanitizeFilename>:
  400e0c:	55                   	push   rbp
  400e0d:	48 89 e5             	mov    rbp,rsp
  400e10:	48 81 ec 20 04 00 00 	sub    rsp,0x420
  400e17:	48 89 bd e8 fb ff ff 	mov    QWORD PTR [rbp-0x418],rdi
  400e1e:	48 89 b5 e0 fb ff ff 	mov    QWORD PTR [rbp-0x420],rsi
  400e25:	48 8b 85 e0 fb ff ff 	mov    rax,QWORD PTR [rbp-0x420]
  400e2c:	be 01 00 00 00       	mov    esi,0x1
  400e31:	48 89 c7             	mov    rdi,rax
  400e34:	e8 47 fe ff ff       	call   400c80 <calloc@plt>
  400e39:	48 89 45 f8          	mov    QWORD PTR [rbp-0x8],rax
  400e3d:	48 8d 85 f0 fb ff ff 	lea    rax,[rbp-0x410]
  400e44:	ba a0 45 60 00       	mov    edx,0x6045a0
  400e49:	be 14 00 00 00       	mov    esi,0x14
  400e4e:	48 89 c7             	mov    rdi,rax
  400e51:	e8 7a fe ff ff       	call   400cd0 <RC4_set_key@plt>
  400e56:	48 8b b5 e0 fb ff ff 	mov    rsi,QWORD PTR [rbp-0x420]
  400e5d:	48 8b 4d f8          	mov    rcx,QWORD PTR [rbp-0x8]
  400e61:	48 8b 95 e8 fb ff ff 	mov    rdx,QWORD PTR [rbp-0x418]
  400e68:	48 8d 85 f0 fb ff ff 	lea    rax,[rbp-0x410]
  400e6f:	48 89 c7             	mov    rdi,rax
  400e72:	e8 99 fd ff ff       	call   400c10 <RC4@plt>
  400e77:	48 8b 95 e0 fb ff ff 	mov    rdx,QWORD PTR [rbp-0x420]
  400e7e:	48 8b 4d f8          	mov    rcx,QWORD PTR [rbp-0x8]
  400e82:	48 8b 85 e8 fb ff ff 	mov    rax,QWORD PTR [rbp-0x418]
  400e89:	48 89 ce             	mov    rsi,rcx
  400e8c:	48 89 c7             	mov    rdi,rax
  400e8f:	e8 ac fd ff ff       	call   400c40 <memcpy@plt>
  400e94:	c9                   	leave  
  400e95:	c3                   	ret    

0000000000400e96 <createHashOfPassword>:
  400e96:	55                   	push   rbp
  400e97:	48 89 e5             	mov    rbp,rsp
  400e9a:	48 83 ec 20          	sub    rsp,0x20
  400e9e:	48 89 7d e8          	mov    QWORD PTR [rbp-0x18],rdi
  400ea2:	48 89 75 e0          	mov    QWORD PTR [rbp-0x20],rsi
  400ea6:	48 8b 45 e8          	mov    rax,QWORD PTR [rbp-0x18]
  400eaa:	be 2f 00 00 00       	mov    esi,0x2f
  400eaf:	48 89 c7             	mov    rdi,rax
  400eb2:	e8 69 fd ff ff       	call   400c20 <strrchr@plt>
  400eb7:	48 89 45 f8          	mov    QWORD PTR [rbp-0x8],rax
  400ebb:	48 83 7d f8 00       	cmp    QWORD PTR [rbp-0x8],0x0
  400ec0:	74 1e                	je     400ee0 <createHashOfPassword+0x4a>
  400ec2:	48 8b 45 f8          	mov    rax,QWORD PTR [rbp-0x8]
  400ec6:	48 8d 48 01          	lea    rcx,[rax+0x1]
  400eca:	48 8b 45 e0          	mov    rax,QWORD PTR [rbp-0x20]
  400ece:	ba 5f 00 00 00       	mov    edx,0x5f
  400ed3:	48 89 ce             	mov    rsi,rcx
  400ed6:	48 89 c7             	mov    rdi,rax
  400ed9:	e8 d2 fd ff ff       	call   400cb0 <strncpy@plt>
  400ede:	eb 18                	jmp    400ef8 <createHashOfPassword+0x62>
  400ee0:	48 8b 4d e8          	mov    rcx,QWORD PTR [rbp-0x18]
  400ee4:	48 8b 45 e0          	mov    rax,QWORD PTR [rbp-0x20]
  400ee8:	ba 5f 00 00 00       	mov    edx,0x5f
  400eed:	48 89 ce             	mov    rsi,rcx
  400ef0:	48 89 c7             	mov    rdi,rax
  400ef3:	e8 b8 fd ff ff       	call   400cb0 <strncpy@plt>
  400ef8:	48 8b 45 e0          	mov    rax,QWORD PTR [rbp-0x20]
  400efc:	48 83 c0 5f          	add    rax,0x5f
  400f00:	c6 00 00             	mov    BYTE PTR [rax],0x0
  400f03:	c9                   	leave  
  400f04:	c3                   	ret    

0000000000400f05 <createFileEntry>:
  400f05:	55                   	push   rbp
  400f06:	48 89 e5             	mov    rbp,rsp
  400f09:	48 83 ec 40          	sub    rsp,0x40
  400f0d:	48 89 7d c8          	mov    QWORD PTR [rbp-0x38],rdi
  400f11:	48 8b 45 c8          	mov    rax,QWORD PTR [rbp-0x38]
  400f15:	ba 02 00 00 00       	mov    edx,0x2
  400f1a:	be 00 00 00 00       	mov    esi,0x0
  400f1f:	48 89 c7             	mov    rdi,rax
  400f22:	e8 79 fc ff ff       	call   400ba0 <fseek@plt>
  400f27:	48 8b 45 c8          	mov    rax,QWORD PTR [rbp-0x38]
  400f2b:	48 89 c7             	mov    rdi,rax
  400f2e:	e8 3d fc ff ff       	call   400b70 <ftell@plt>
  400f33:	48 89 45 e8          	mov    QWORD PTR [rbp-0x18],rax
  400f37:	48 8b 45 e8          	mov    rax,QWORD PTR [rbp-0x18]
  400f3b:	48 8d 48 e0          	lea    rcx,[rax-0x20]
  400f3f:	48 ba c1 0f fc c0 0f 	movabs rdx,0xfc0fc0fc0fc0fc1
  400f46:	fc c0 0f 
  400f49:	48 89 c8             	mov    rax,rcx
  400f4c:	48 f7 ea             	imul   rdx
  400f4f:	48 c1 fa 06          	sar    rdx,0x6
  400f53:	48 89 c8             	mov    rax,rcx
  400f56:	48 c1 f8 3f          	sar    rax,0x3f
  400f5a:	48 89 d1             	mov    rcx,rdx
  400f5d:	48 29 c1             	sub    rcx,rax
  400f60:	48 89 c8             	mov    rax,rcx
  400f63:	48 89 45 e0          	mov    QWORD PTR [rbp-0x20],rax
  400f67:	48 c7 45 f0 00 00 00 	mov    QWORD PTR [rbp-0x10],0x0
  400f6e:	00 
  400f6f:	c7 45 fc 00 00 00 00 	mov    DWORD PTR [rbp-0x4],0x0
  400f76:	e9 a4 00 00 00       	jmp    40101f <createFileEntry+0x11a>
  400f7b:	8b 45 fc             	mov    eax,DWORD PTR [rbp-0x4]
  400f7e:	c1 e0 04             	shl    eax,0x4
  400f81:	89 c2                	mov    edx,eax
  400f83:	c1 e2 06             	shl    edx,0x6
  400f86:	01 d0                	add    eax,edx
  400f88:	83 c0 20             	add    eax,0x20
  400f8b:	48 63 c8             	movsxd rcx,eax
  400f8e:	48 8b 45 c8          	mov    rax,QWORD PTR [rbp-0x38]
  400f92:	ba 00 00 00 00       	mov    edx,0x0
  400f97:	48 89 ce             	mov    rsi,rcx
  400f9a:	48 89 c7             	mov    rdi,rax
  400f9d:	e8 fe fb ff ff       	call   400ba0 <fseek@plt>
  400fa2:	48 8b 55 c8          	mov    rdx,QWORD PTR [rbp-0x38]
  400fa6:	48 8d 45 d0          	lea    rax,[rbp-0x30]
  400faa:	48 89 d1             	mov    rcx,rdx
  400fad:	ba 08 00 00 00       	mov    edx,0x8
  400fb2:	be 01 00 00 00       	mov    esi,0x1
  400fb7:	48 89 c7             	mov    rdi,rax
  400fba:	e8 a1 fc ff ff       	call   400c60 <fread@plt>
  400fbf:	48 8d 45 d0          	lea    rax,[rbp-0x30]
  400fc3:	be 08 00 00 00       	mov    esi,0x8
  400fc8:	48 89 c7             	mov    rdi,rax
  400fcb:	e8 3c fe ff ff       	call   400e0c <sanitizeFilename>
  400fd0:	0f b6 45 d0          	movzx  eax,BYTE PTR [rbp-0x30]
  400fd4:	84 c0                	test   al,al
  400fd6:	75 43                	jne    40101b <createFileEntry+0x116>
  400fd8:	0f b6 45 d1          	movzx  eax,BYTE PTR [rbp-0x2f]
  400fdc:	84 c0                	test   al,al
  400fde:	75 3b                	jne    40101b <createFileEntry+0x116>
  400fe0:	0f b6 45 d2          	movzx  eax,BYTE PTR [rbp-0x2e]
  400fe4:	84 c0                	test   al,al
  400fe6:	75 33                	jne    40101b <createFileEntry+0x116>
  400fe8:	0f b6 45 d3          	movzx  eax,BYTE PTR [rbp-0x2d]
  400fec:	84 c0                	test   al,al
  400fee:	75 2b                	jne    40101b <createFileEntry+0x116>
  400ff0:	0f b6 45 d4          	movzx  eax,BYTE PTR [rbp-0x2c]
  400ff4:	84 c0                	test   al,al
  400ff6:	75 23                	jne    40101b <createFileEntry+0x116>
  400ff8:	0f b6 45 d5          	movzx  eax,BYTE PTR [rbp-0x2b]
  400ffc:	84 c0                	test   al,al
  400ffe:	75 1b                	jne    40101b <createFileEntry+0x116>
  401000:	0f b6 45 d6          	movzx  eax,BYTE PTR [rbp-0x2a]
  401004:	84 c0                	test   al,al
  401006:	75 13                	jne    40101b <createFileEntry+0x116>
  401008:	0f b6 45 d7          	movzx  eax,BYTE PTR [rbp-0x29]
  40100c:	84 c0                	test   al,al
  40100e:	75 0b                	jne    40101b <createFileEntry+0x116>
  401010:	8b 45 fc             	mov    eax,DWORD PTR [rbp-0x4]
  401013:	48 98                	cdqe   
  401015:	48 89 45 f0          	mov    QWORD PTR [rbp-0x10],rax
  401019:	eb 13                	jmp    40102e <createFileEntry+0x129>
  40101b:	83 45 fc 01          	add    DWORD PTR [rbp-0x4],0x1
  40101f:	8b 45 fc             	mov    eax,DWORD PTR [rbp-0x4]
  401022:	48 98                	cdqe   
  401024:	48 3b 45 e0          	cmp    rax,QWORD PTR [rbp-0x20]
  401028:	0f 8c 4d ff ff ff    	jl     400f7b <createFileEntry+0x76>
  40102e:	48 83 7d f0 00       	cmp    QWORD PTR [rbp-0x10],0x0
  401033:	75 08                	jne    40103d <createFileEntry+0x138>
  401035:	48 8b 45 e0          	mov    rax,QWORD PTR [rbp-0x20]
  401039:	48 89 45 f0          	mov    QWORD PTR [rbp-0x10],rax
  40103d:	48 8b 45 f0          	mov    rax,QWORD PTR [rbp-0x10]
  401041:	c9                   	leave  
  401042:	c3                   	ret    

0000000000401043 <searchFileInArchiv>:
  401043:	55                   	push   rbp
  401044:	48 89 e5             	mov    rbp,rsp
  401047:	53                   	push   rbx
  401048:	48 81 ec d8 00 00 00 	sub    rsp,0xd8
  40104f:	48 89 bd 38 ff ff ff 	mov    QWORD PTR [rbp-0xc8],rdi
  401056:	48 89 b5 30 ff ff ff 	mov    QWORD PTR [rbp-0xd0],rsi
  40105d:	48 89 95 28 ff ff ff 	mov    QWORD PTR [rbp-0xd8],rdx
  401064:	48 89 8d 20 ff ff ff 	mov    QWORD PTR [rbp-0xe0],rcx
  40106b:	48 8d 85 50 ff ff ff 	lea    rax,[rbp-0xb0]
  401072:	48 89 c7             	mov    rdi,rax
  401075:	e8 d6 fa ff ff       	call   400b50 <MD5_Init@plt>
  40107a:	48 8b 85 30 ff ff ff 	mov    rax,QWORD PTR [rbp-0xd0]
  401081:	ba 02 00 00 00       	mov    edx,0x2
  401086:	be 00 00 00 00       	mov    esi,0x0
  40108b:	48 89 c7             	mov    rdi,rax
  40108e:	e8 0d fb ff ff       	call   400ba0 <fseek@plt>
  401093:	48 8b 85 30 ff ff ff 	mov    rax,QWORD PTR [rbp-0xd0]
  40109a:	48 89 c7             	mov    rdi,rax
  40109d:	e8 ce fa ff ff       	call   400b70 <ftell@plt>
  4010a2:	48 89 45 d8          	mov    QWORD PTR [rbp-0x28],rax
  4010a6:	48 8b 85 30 ff ff ff 	mov    rax,QWORD PTR [rbp-0xd0]
  4010ad:	ba 00 00 00 00       	mov    edx,0x0
  4010b2:	be 00 00 00 00       	mov    esi,0x0
  4010b7:	48 89 c7             	mov    rdi,rax
  4010ba:	e8 e1 fa ff ff       	call   400ba0 <fseek@plt>
  4010bf:	48 8b 4d d8          	mov    rcx,QWORD PTR [rbp-0x28]
  4010c3:	48 ba 81 3f e0 0f f8 	movabs rdx,0xfe03f80fe03f81
  4010ca:	03 fe 00 
  4010cd:	48 89 c8             	mov    rax,rcx
  4010d0:	48 f7 ea             	imul   rdx
  4010d3:	48 c1 fa 02          	sar    rdx,0x2
  4010d7:	48 89 c8             	mov    rax,rcx
  4010da:	48 c1 f8 3f          	sar    rax,0x3f
  4010de:	48 89 d1             	mov    rcx,rdx
  4010e1:	48 29 c1             	sub    rcx,rax
  4010e4:	48 89 c8             	mov    rax,rcx
  4010e7:	48 83 c0 01          	add    rax,0x1
  4010eb:	48 89 45 d0          	mov    QWORD PTR [rbp-0x30],rax
  4010ef:	bf 94 39 40 00       	mov    edi,0x403994
  4010f4:	e8 97 fa ff ff       	call   400b90 <puts@plt>
  4010f9:	48 8b 4d d0          	mov    rcx,QWORD PTR [rbp-0x30]
  4010fd:	48 ba 72 1c c7 71 1c 	movabs rdx,0x1c71c71c71c71c72
  401104:	c7 71 1c 
  401107:	48 89 c8             	mov    rax,rcx
  40110a:	48 f7 ea             	imul   rdx
  40110d:	48 89 c8             	mov    rax,rcx
  401110:	48 c1 f8 3f          	sar    rax,0x3f
  401114:	48 89 d1             	mov    rcx,rdx
  401117:	48 29 c1             	sub    rcx,rax
  40111a:	48 89 c8             	mov    rax,rcx
  40111d:	48 89 45 c8          	mov    QWORD PTR [rbp-0x38],rax
  401121:	c7 45 e8 0a 00 00 00 	mov    DWORD PTR [rbp-0x18],0xa
  401128:	bf 9f 39 40 00       	mov    edi,0x40399f
  40112d:	b8 00 00 00 00       	mov    eax,0x0
  401132:	e8 29 fa ff ff       	call   400b60 <printf@plt>
  401137:	48 8b 05 42 34 20 00 	mov    rax,QWORD PTR [rip+0x203442]        # 604580 <stdout@@GLIBC_2.2.5>
  40113e:	48 89 c7             	mov    rdi,rax
  401141:	e8 aa fb ff ff       	call   400cf0 <fflush@plt>
  401146:	c7 45 e4 00 00 00 00 	mov    DWORD PTR [rbp-0x1c],0x0
  40114d:	e9 49 02 00 00       	jmp    40139b <searchFileInArchiv+0x358>
  401152:	48 8b 85 20 ff ff ff 	mov    rax,QWORD PTR [rbp-0xe0]
  401159:	48 c1 e0 04          	shl    rax,0x4
  40115d:	48 89 c2             	mov    rdx,rax
  401160:	48 c1 e2 06          	shl    rdx,0x6
  401164:	48 01 d0             	add    rax,rdx
  401167:	48 8d 48 20          	lea    rcx,[rax+0x20]
  40116b:	48 8b 85 38 ff ff ff 	mov    rax,QWORD PTR [rbp-0xc8]
  401172:	ba 00 00 00 00       	mov    edx,0x0
  401177:	48 89 ce             	mov    rsi,rcx
  40117a:	48 89 c7             	mov    rdi,rax
  40117d:	e8 1e fa ff ff       	call   400ba0 <fseek@plt>
  401182:	48 8b 85 38 ff ff ff 	mov    rax,QWORD PTR [rbp-0xc8]
  401189:	48 89 c7             	mov    rdi,rax
  40118c:	e8 df f9 ff ff       	call   400b70 <ftell@plt>
  401191:	48 89 45 c0          	mov    QWORD PTR [rbp-0x40],rax
  401195:	48 8b 85 38 ff ff ff 	mov    rax,QWORD PTR [rbp-0xc8]
  40119c:	48 89 c1             	mov    rcx,rax
  40119f:	ba 01 00 00 00       	mov    edx,0x1
  4011a4:	be 08 00 00 00       	mov    esi,0x8
  4011a9:	bf a3 39 40 00       	mov    edi,0x4039a3
  4011ae:	e8 2d fb ff ff       	call   400ce0 <fwrite@plt>
  4011b3:	48 8b 85 30 ff ff ff 	mov    rax,QWORD PTR [rbp-0xd0]
  4011ba:	48 89 c1             	mov    rcx,rax
  4011bd:	ba 08 04 00 00       	mov    edx,0x408
  4011c2:	be 01 00 00 00       	mov    esi,0x1
  4011c7:	bf c0 45 60 00       	mov    edi,0x6045c0
  4011cc:	e8 8f fa ff ff       	call   400c60 <fread@plt>
  4011d1:	8b 45 e4             	mov    eax,DWORD PTR [rbp-0x1c]
  4011d4:	83 c0 01             	add    eax,0x1
  4011d7:	48 98                	cdqe   
  4011d9:	48 3b 45 d0          	cmp    rax,QWORD PTR [rbp-0x30]
  4011dd:	75 43                	jne    401222 <searchFileInArchiv+0x1df>
  4011df:	48 8b 55 d0          	mov    rdx,QWORD PTR [rbp-0x30]
  4011e3:	b8 00 00 00 00       	mov    eax,0x0
  4011e8:	48 29 d0             	sub    rax,rdx
  4011eb:	48 c1 e0 07          	shl    rax,0x7
  4011ef:	48 29 d0             	sub    rax,rdx
  4011f2:	48 c1 e0 03          	shl    rax,0x3
  4011f6:	48 8d 90 08 04 00 00 	lea    rdx,[rax+0x408]
  4011fd:	48 8b 45 d8          	mov    rax,QWORD PTR [rbp-0x28]
  401201:	48 01 d0             	add    rax,rdx
  401204:	48 89 45 b8          	mov    QWORD PTR [rbp-0x48],rax
  401208:	48 8b 55 b8          	mov    rdx,QWORD PTR [rbp-0x48]
  40120c:	48 8d 85 50 ff ff ff 	lea    rax,[rbp-0xb0]
  401213:	be c0 45 60 00       	mov    esi,0x6045c0
  401218:	48 89 c7             	mov    rdi,rax
  40121b:	e8 60 f9 ff ff       	call   400b80 <MD5_Update@plt>
  401220:	eb 19                	jmp    40123b <searchFileInArchiv+0x1f8>
  401222:	48 8d 85 50 ff ff ff 	lea    rax,[rbp-0xb0]
  401229:	ba 08 04 00 00       	mov    edx,0x408
  40122e:	be c0 45 60 00       	mov    esi,0x6045c0
  401233:	48 89 c7             	mov    rdi,rax
  401236:	e8 45 f9 ff ff       	call   400b80 <MD5_Update@plt>
  40123b:	be 08 04 00 00       	mov    esi,0x408
  401240:	bf c0 45 60 00       	mov    edi,0x6045c0
  401245:	e8 c2 fb ff ff       	call   400e0c <sanitizeFilename>
  40124a:	48 8b 85 38 ff ff ff 	mov    rax,QWORD PTR [rbp-0xc8]
  401251:	48 89 c1             	mov    rcx,rax
  401254:	ba 01 00 00 00       	mov    edx,0x1
  401259:	be 08 04 00 00       	mov    esi,0x408
  40125e:	bf c0 45 60 00       	mov    edi,0x6045c0
  401263:	e8 78 fa ff ff       	call   400ce0 <fwrite@plt>
  401268:	48 83 7d c8 00       	cmp    QWORD PTR [rbp-0x38],0x0
  40126d:	75 29                	jne    401298 <searchFileInArchiv+0x255>
  40126f:	8b 45 e8             	mov    eax,DWORD PTR [rbp-0x18]
  401272:	89 c6                	mov    esi,eax
  401274:	bf ac 39 40 00       	mov    edi,0x4039ac
  401279:	b8 00 00 00 00       	mov    eax,0x0
  40127e:	e8 dd f8 ff ff       	call   400b60 <printf@plt>
  401283:	48 8b 05 f6 32 20 00 	mov    rax,QWORD PTR [rip+0x2032f6]        # 604580 <stdout@@GLIBC_2.2.5>
  40128a:	48 89 c7             	mov    rdi,rax
  40128d:	e8 5e fa ff ff       	call   400cf0 <fflush@plt>
  401292:	83 45 e8 0a          	add    DWORD PTR [rbp-0x18],0xa
  401296:	eb 3f                	jmp    4012d7 <searchFileInArchiv+0x294>
  401298:	8b 45 e4             	mov    eax,DWORD PTR [rbp-0x1c]
  40129b:	48 98                	cdqe   
  40129d:	48 89 c2             	mov    rdx,rax
  4012a0:	48 c1 fa 3f          	sar    rdx,0x3f
  4012a4:	48 f7 7d c8          	idiv   QWORD PTR [rbp-0x38]
  4012a8:	48 89 d0             	mov    rax,rdx
  4012ab:	48 85 c0             	test   rax,rax
  4012ae:	75 27                	jne    4012d7 <searchFileInArchiv+0x294>
  4012b0:	8b 45 e8             	mov    eax,DWORD PTR [rbp-0x18]
  4012b3:	89 c6                	mov    esi,eax
  4012b5:	bf ac 39 40 00       	mov    edi,0x4039ac
  4012ba:	b8 00 00 00 00       	mov    eax,0x0
  4012bf:	e8 9c f8 ff ff       	call   400b60 <printf@plt>
  4012c4:	48 8b 05 b5 32 20 00 	mov    rax,QWORD PTR [rip+0x2032b5]        # 604580 <stdout@@GLIBC_2.2.5>
  4012cb:	48 89 c7             	mov    rdi,rax
  4012ce:	e8 1d fa ff ff       	call   400cf0 <fflush@plt>
  4012d3:	83 45 e8 0a          	add    DWORD PTR [rbp-0x18],0xa
  4012d7:	48 8b 45 d0          	mov    rax,QWORD PTR [rbp-0x30]
  4012db:	48 8d 50 ff          	lea    rdx,[rax-0x1]
  4012df:	8b 45 e4             	mov    eax,DWORD PTR [rbp-0x1c]
  4012e2:	48 98                	cdqe   
  4012e4:	48 39 c2             	cmp    rdx,rax
  4012e7:	75 0d                	jne    4012f6 <searchFileInArchiv+0x2b3>
  4012e9:	48 8b 45 d8          	mov    rax,QWORD PTR [rbp-0x28]
  4012ed:	48 89 85 20 ff ff ff 	mov    QWORD PTR [rbp-0xe0],rax
  4012f4:	eb 16                	jmp    40130c <searchFileInArchiv+0x2c9>
  4012f6:	48 8b 85 38 ff ff ff 	mov    rax,QWORD PTR [rbp-0xc8]
  4012fd:	48 89 c7             	mov    rdi,rax
  401300:	e8 00 fc ff ff       	call   400f05 <createFileEntry>
  401305:	48 89 85 20 ff ff ff 	mov    QWORD PTR [rbp-0xe0],rax
  40130c:	48 8b 4d c0          	mov    rcx,QWORD PTR [rbp-0x40]
  401310:	48 8b 85 38 ff ff ff 	mov    rax,QWORD PTR [rbp-0xc8]
  401317:	ba 00 00 00 00       	mov    edx,0x0
  40131c:	48 89 ce             	mov    rsi,rcx
  40131f:	48 89 c7             	mov    rdi,rax
  401322:	e8 79 f8 ff ff       	call   400ba0 <fseek@plt>
  401327:	c7 45 ec 00 00 00 00 	mov    DWORD PTR [rbp-0x14],0x0
  40132e:	eb 2a                	jmp    40135a <searchFileInArchiv+0x317>
  401330:	8b 45 ec             	mov    eax,DWORD PTR [rbp-0x14]
  401333:	c1 e0 03             	shl    eax,0x3
  401336:	48 8b 95 20 ff ff ff 	mov    rdx,QWORD PTR [rbp-0xe0]
  40133d:	48 89 d3             	mov    rbx,rdx
  401340:	89 c1                	mov    ecx,eax
  401342:	48 d3 fb             	sar    rbx,cl
  401345:	48 89 d8             	mov    rax,rbx
  401348:	89 c2                	mov    edx,eax
  40134a:	8b 45 ec             	mov    eax,DWORD PTR [rbp-0x14]
  40134d:	48 98                	cdqe   
  40134f:	88 94 05 40 ff ff ff 	mov    BYTE PTR [rbp+rax*1-0xc0],dl
  401356:	83 45 ec 01          	add    DWORD PTR [rbp-0x14],0x1
  40135a:	83 7d ec 07          	cmp    DWORD PTR [rbp-0x14],0x7
  40135e:	7e d0                	jle    401330 <searchFileInArchiv+0x2ed>
  401360:	48 8d 85 40 ff ff ff 	lea    rax,[rbp-0xc0]
  401367:	be 08 00 00 00       	mov    esi,0x8
  40136c:	48 89 c7             	mov    rdi,rax
  40136f:	e8 98 fa ff ff       	call   400e0c <sanitizeFilename>
  401374:	48 8b 95 38 ff ff ff 	mov    rdx,QWORD PTR [rbp-0xc8]
  40137b:	48 8d 85 40 ff ff ff 	lea    rax,[rbp-0xc0]
  401382:	48 89 d1             	mov    rcx,rdx
  401385:	ba 01 00 00 00       	mov    edx,0x1
  40138a:	be 08 00 00 00       	mov    esi,0x8
  40138f:	48 89 c7             	mov    rdi,rax
  401392:	e8 49 f9 ff ff       	call   400ce0 <fwrite@plt>
  401397:	83 45 e4 01          	add    DWORD PTR [rbp-0x1c],0x1
  40139b:	8b 45 e4             	mov    eax,DWORD PTR [rbp-0x1c]
  40139e:	48 98                	cdqe   
  4013a0:	48 3b 45 d0          	cmp    rax,QWORD PTR [rbp-0x30]
  4013a4:	0f 8c a8 fd ff ff    	jl     401152 <searchFileInArchiv+0x10f>
  4013aa:	48 8d 95 50 ff ff ff 	lea    rdx,[rbp-0xb0]
  4013b1:	48 8b 85 28 ff ff ff 	mov    rax,QWORD PTR [rbp-0xd8]
  4013b8:	48 89 d6             	mov    rsi,rdx
  4013bb:	48 89 c7             	mov    rdi,rax
  4013be:	e8 6d f8 ff ff       	call   400c30 <MD5_Final@plt>
  4013c3:	eb 27                	jmp    4013ec <searchFileInArchiv+0x3a9>
  4013c5:	8b 45 e8             	mov    eax,DWORD PTR [rbp-0x18]
  4013c8:	89 c6                	mov    esi,eax
  4013ca:	bf ac 39 40 00       	mov    edi,0x4039ac
  4013cf:	b8 00 00 00 00       	mov    eax,0x0
  4013d4:	e8 87 f7 ff ff       	call   400b60 <printf@plt>
  4013d9:	48 8b 05 a0 31 20 00 	mov    rax,QWORD PTR [rip+0x2031a0]        # 604580 <stdout@@GLIBC_2.2.5>
  4013e0:	48 89 c7             	mov    rdi,rax
  4013e3:	e8 08 f9 ff ff       	call   400cf0 <fflush@plt>
  4013e8:	83 45 e8 0a          	add    DWORD PTR [rbp-0x18],0xa
  4013ec:	83 7d e8 6d          	cmp    DWORD PTR [rbp-0x18],0x6d
  4013f0:	7e d3                	jle    4013c5 <searchFileInArchiv+0x382>
  4013f2:	bf b6 39 40 00       	mov    edi,0x4039b6
  4013f7:	e8 94 f7 ff ff       	call   400b90 <puts@plt>
  4013fc:	48 81 c4 d8 00 00 00 	add    rsp,0xd8
  401403:	5b                   	pop    rbx
  401404:	5d                   	pop    rbp
  401405:	c3                   	ret    

0000000000401406 <findNextFreeChunk>:
  401406:	55                   	push   rbp
  401407:	48 89 e5             	mov    rbp,rsp
  40140a:	53                   	push   rbx
  40140b:	48 81 ec f8 00 00 00 	sub    rsp,0xf8
  401412:	48 89 bd 18 ff ff ff 	mov    QWORD PTR [rbp-0xe8],rdi
  401419:	48 89 b5 10 ff ff ff 	mov    QWORD PTR [rbp-0xf0],rsi
  401420:	48 89 95 08 ff ff ff 	mov    QWORD PTR [rbp-0xf8],rdx
  401427:	48 89 8d 00 ff ff ff 	mov    QWORD PTR [rbp-0x100],rcx
  40142e:	48 8b 85 10 ff ff ff 	mov    rax,QWORD PTR [rbp-0xf0]
  401435:	ba 02 00 00 00       	mov    edx,0x2
  40143a:	be 00 00 00 00       	mov    esi,0x0
  40143f:	48 89 c7             	mov    rdi,rax
  401442:	e8 59 f7 ff ff       	call   400ba0 <fseek@plt>
  401447:	48 8b 85 10 ff ff ff 	mov    rax,QWORD PTR [rbp-0xf0]
  40144e:	48 89 c7             	mov    rdi,rax
  401451:	e8 1a f7 ff ff       	call   400b70 <ftell@plt>
  401456:	48 89 45 a8          	mov    QWORD PTR [rbp-0x58],rax
  40145a:	48 8b 85 10 ff ff ff 	mov    rax,QWORD PTR [rbp-0xf0]
  401461:	ba 00 00 00 00       	mov    edx,0x0
  401466:	be 00 00 00 00       	mov    esi,0x0
  40146b:	48 89 c7             	mov    rdi,rax
  40146e:	e8 2d f7 ff ff       	call   400ba0 <fseek@plt>
  401473:	48 8b 85 18 ff ff ff 	mov    rax,QWORD PTR [rbp-0xe8]
  40147a:	48 89 c7             	mov    rdi,rax
  40147d:	e8 83 fa ff ff       	call   400f05 <createFileEntry>
  401482:	48 89 45 e0          	mov    QWORD PTR [rbp-0x20],rax
  401486:	48 c7 45 d0 00 00 00 	mov    QWORD PTR [rbp-0x30],0x0
  40148d:	00 
  40148e:	48 c7 45 c8 00 00 00 	mov    QWORD PTR [rbp-0x38],0x0
  401495:	00 
  401496:	48 8b 4d a8          	mov    rcx,QWORD PTR [rbp-0x58]
  40149a:	48 ba 81 3f e0 0f f8 	movabs rdx,0xfe03f80fe03f81
  4014a1:	03 fe 00 
  4014a4:	48 89 c8             	mov    rax,rcx
  4014a7:	48 f7 ea             	imul   rdx
  4014aa:	48 c1 fa 02          	sar    rdx,0x2
  4014ae:	48 89 c8             	mov    rax,rcx
  4014b1:	48 c1 f8 3f          	sar    rax,0x3f
  4014b5:	48 89 d1             	mov    rcx,rdx
  4014b8:	48 29 c1             	sub    rcx,rax
  4014bb:	48 89 c8             	mov    rax,rcx
  4014be:	48 83 c0 01          	add    rax,0x1
  4014c2:	48 89 45 a0          	mov    QWORD PTR [rbp-0x60],rax
  4014c6:	48 8b 85 18 ff ff ff 	mov    rax,QWORD PTR [rbp-0xe8]
  4014cd:	ba 00 00 00 00       	mov    edx,0x0
  4014d2:	be 20 00 00 00       	mov    esi,0x20
  4014d7:	48 89 c7             	mov    rdi,rax
  4014da:	e8 c1 f6 ff ff       	call   400ba0 <fseek@plt>
  4014df:	48 8b 95 18 ff ff ff 	mov    rdx,QWORD PTR [rbp-0xe8]
  4014e6:	48 8d 45 80          	lea    rax,[rbp-0x80]
  4014ea:	48 89 d1             	mov    rcx,rdx
  4014ed:	ba 01 00 00 00       	mov    edx,0x1
  4014f2:	be 08 00 00 00       	mov    esi,0x8
  4014f7:	48 89 c7             	mov    rdi,rax
  4014fa:	e8 61 f7 ff ff       	call   400c60 <fread@plt>
  4014ff:	48 8d 45 80          	lea    rax,[rbp-0x80]
  401503:	be 08 00 00 00       	mov    esi,0x8
  401508:	48 89 c7             	mov    rdi,rax
  40150b:	e8 fc f8 ff ff       	call   400e0c <sanitizeFilename>
  401510:	0f b6 55 80          	movzx  edx,BYTE PTR [rbp-0x80]
  401514:	0f b6 05 71 24 00 00 	movzx  eax,BYTE PTR [rip+0x2471]        # 40398c <MAGIC_VALUE_FILE_ENTRY_LIST>
  40151b:	38 c2                	cmp    dl,al
  40151d:	75 69                	jne    401588 <findNextFreeChunk+0x182>
  40151f:	0f b6 55 81          	movzx  edx,BYTE PTR [rbp-0x7f]
  401523:	0f b6 05 63 24 00 00 	movzx  eax,BYTE PTR [rip+0x2463]        # 40398d <MAGIC_VALUE_FILE_ENTRY_LIST+0x1>
  40152a:	38 c2                	cmp    dl,al
  40152c:	75 5a                	jne    401588 <findNextFreeChunk+0x182>
  40152e:	0f b6 55 82          	movzx  edx,BYTE PTR [rbp-0x7e]
  401532:	0f b6 05 55 24 00 00 	movzx  eax,BYTE PTR [rip+0x2455]        # 40398e <MAGIC_VALUE_FILE_ENTRY_LIST+0x2>
  401539:	38 c2                	cmp    dl,al
  40153b:	75 4b                	jne    401588 <findNextFreeChunk+0x182>
  40153d:	0f b6 55 83          	movzx  edx,BYTE PTR [rbp-0x7d]
  401541:	0f b6 05 47 24 00 00 	movzx  eax,BYTE PTR [rip+0x2447]        # 40398f <MAGIC_VALUE_FILE_ENTRY_LIST+0x3>
  401548:	38 c2                	cmp    dl,al
  40154a:	75 3c                	jne    401588 <findNextFreeChunk+0x182>
  40154c:	0f b6 55 84          	movzx  edx,BYTE PTR [rbp-0x7c]
  401550:	0f b6 05 39 24 00 00 	movzx  eax,BYTE PTR [rip+0x2439]        # 403990 <MAGIC_VALUE_FILE_ENTRY_LIST+0x4>
  401557:	38 c2                	cmp    dl,al
  401559:	75 2d                	jne    401588 <findNextFreeChunk+0x182>
  40155b:	0f b6 55 85          	movzx  edx,BYTE PTR [rbp-0x7b]
  40155f:	0f b6 05 2b 24 00 00 	movzx  eax,BYTE PTR [rip+0x242b]        # 403991 <MAGIC_VALUE_FILE_ENTRY_LIST+0x5>
  401566:	38 c2                	cmp    dl,al
  401568:	75 1e                	jne    401588 <findNextFreeChunk+0x182>
  40156a:	0f b6 55 86          	movzx  edx,BYTE PTR [rbp-0x7a]
  40156e:	0f b6 05 1d 24 00 00 	movzx  eax,BYTE PTR [rip+0x241d]        # 403992 <MAGIC_VALUE_FILE_ENTRY_LIST+0x6>
  401575:	38 c2                	cmp    dl,al
  401577:	75 0f                	jne    401588 <findNextFreeChunk+0x182>
  401579:	0f b6 55 87          	movzx  edx,BYTE PTR [rbp-0x79]
  40157d:	0f b6 05 0f 24 00 00 	movzx  eax,BYTE PTR [rip+0x240f]        # 403993 <MAGIC_VALUE_FILE_ENTRY_LIST+0x7>
  401584:	38 c2                	cmp    dl,al
  401586:	74 14                	je     40159c <findNextFreeChunk+0x196>
  401588:	bf b8 39 40 00       	mov    edi,0x4039b8
  40158d:	e8 fe f5 ff ff       	call   400b90 <puts@plt>
  401592:	bf 01 00 00 00       	mov    edi,0x1
  401597:	e8 14 f6 ff ff       	call   400bb0 <exit@plt>
  40159c:	48 8b 95 18 ff ff ff 	mov    rdx,QWORD PTR [rbp-0xe8]
  4015a3:	48 8d 45 80          	lea    rax,[rbp-0x80]
  4015a7:	48 89 d1             	mov    rcx,rdx
  4015aa:	ba 01 00 00 00       	mov    edx,0x1
  4015af:	be 08 00 00 00       	mov    esi,0x8
  4015b4:	48 89 c7             	mov    rdi,rax
  4015b7:	e8 a4 f6 ff ff       	call   400c60 <fread@plt>
  4015bc:	48 8d 45 80          	lea    rax,[rbp-0x80]
  4015c0:	be 08 00 00 00       	mov    esi,0x8
  4015c5:	48 89 c7             	mov    rdi,rax
  4015c8:	e8 3f f8 ff ff       	call   400e0c <sanitizeFilename>
  4015cd:	48 c7 45 d8 00 00 00 	mov    QWORD PTR [rbp-0x28],0x0
  4015d4:	00 
  4015d5:	c7 45 ec 00 00 00 00 	mov    DWORD PTR [rbp-0x14],0x0
  4015dc:	eb 2e                	jmp    40160c <findNextFreeChunk+0x206>
  4015de:	48 8b 45 d8          	mov    rax,QWORD PTR [rbp-0x28]
  4015e2:	48 89 c2             	mov    rdx,rax
  4015e5:	48 c1 e2 08          	shl    rdx,0x8
  4015e9:	b8 07 00 00 00       	mov    eax,0x7
  4015ee:	2b 45 ec             	sub    eax,DWORD PTR [rbp-0x14]
  4015f1:	48 98                	cdqe   
  4015f3:	0f b6 44 05 80       	movzx  eax,BYTE PTR [rbp+rax*1-0x80]
  4015f8:	48 0f be c0          	movsx  rax,al
  4015fc:	25 ff 00 00 00       	and    eax,0xff
  401601:	48 09 d0             	or     rax,rdx
  401604:	48 89 45 d8          	mov    QWORD PTR [rbp-0x28],rax
  401608:	83 45 ec 01          	add    DWORD PTR [rbp-0x14],0x1
  40160c:	83 7d ec 07          	cmp    DWORD PTR [rbp-0x14],0x7
  401610:	7e cc                	jle    4015de <findNextFreeChunk+0x1d8>
  401612:	c7 45 c4 00 00 00 00 	mov    DWORD PTR [rbp-0x3c],0x0
  401619:	e9 d3 00 00 00       	jmp    4016f1 <findNextFreeChunk+0x2eb>
  40161e:	48 8b 45 d0          	mov    rax,QWORD PTR [rbp-0x30]
  401622:	48 c1 e0 04          	shl    rax,0x4
  401626:	48 89 c2             	mov    rdx,rax
  401629:	48 c1 e2 06          	shl    rdx,0x6
  40162d:	48 01 d0             	add    rax,rdx
  401630:	48 8d 50 30          	lea    rdx,[rax+0x30]
  401634:	8b 45 c4             	mov    eax,DWORD PTR [rbp-0x3c]
  401637:	c1 e0 07             	shl    eax,0x7
  40163a:	48 98                	cdqe   
  40163c:	48 8d 0c 02          	lea    rcx,[rdx+rax*1]
  401640:	48 8b 85 18 ff ff ff 	mov    rax,QWORD PTR [rbp-0xe8]
  401647:	ba 00 00 00 00       	mov    edx,0x0
  40164c:	48 89 ce             	mov    rsi,rcx
  40164f:	48 89 c7             	mov    rdi,rax
  401652:	e8 49 f5 ff ff       	call   400ba0 <fseek@plt>
  401657:	48 8b 95 18 ff ff ff 	mov    rdx,QWORD PTR [rbp-0xe8]
  40165e:	48 8d 45 80          	lea    rax,[rbp-0x80]
  401662:	48 89 d1             	mov    rcx,rdx
  401665:	ba 01 00 00 00       	mov    edx,0x1
  40166a:	be 08 00 00 00       	mov    esi,0x8
  40166f:	48 89 c7             	mov    rdi,rax
  401672:	e8 e9 f5 ff ff       	call   400c60 <fread@plt>
  401677:	48 8d 45 80          	lea    rax,[rbp-0x80]
  40167b:	be 08 00 00 00       	mov    esi,0x8
  401680:	48 89 c7             	mov    rdi,rax
  401683:	e8 84 f7 ff ff       	call   400e0c <sanitizeFilename>
  401688:	48 c7 45 b8 00 00 00 	mov    QWORD PTR [rbp-0x48],0x0
  40168f:	00 
  401690:	c7 45 ec 00 00 00 00 	mov    DWORD PTR [rbp-0x14],0x0
  401697:	eb 2e                	jmp    4016c7 <findNextFreeChunk+0x2c1>
  401699:	48 8b 45 b8          	mov    rax,QWORD PTR [rbp-0x48]
  40169d:	48 89 c2             	mov    rdx,rax
  4016a0:	48 c1 e2 08          	shl    rdx,0x8
  4016a4:	b8 07 00 00 00       	mov    eax,0x7
  4016a9:	2b 45 ec             	sub    eax,DWORD PTR [rbp-0x14]
  4016ac:	48 98                	cdqe   
  4016ae:	0f b6 44 05 80       	movzx  eax,BYTE PTR [rbp+rax*1-0x80]
  4016b3:	48 0f be c0          	movsx  rax,al
  4016b7:	25 ff 00 00 00       	and    eax,0xff
  4016bc:	48 09 d0             	or     rax,rdx
  4016bf:	48 89 45 b8          	mov    QWORD PTR [rbp-0x48],rax
  4016c3:	83 45 ec 01          	add    DWORD PTR [rbp-0x14],0x1
  4016c7:	83 7d ec 07          	cmp    DWORD PTR [rbp-0x14],0x7
  4016cb:	7e cc                	jle    401699 <findNextFreeChunk+0x293>
  4016cd:	48 83 7d b8 00       	cmp    QWORD PTR [rbp-0x48],0x0
  4016d2:	75 19                	jne    4016ed <findNextFreeChunk+0x2e7>
  4016d4:	48 8b 85 18 ff ff ff 	mov    rax,QWORD PTR [rbp-0xe8]
  4016db:	48 89 c7             	mov    rdi,rax
  4016de:	e8 8d f4 ff ff       	call   400b70 <ftell@plt>
  4016e3:	48 83 e8 08          	sub    rax,0x8
  4016e7:	48 89 45 c8          	mov    QWORD PTR [rbp-0x38],rax
  4016eb:	eb 0e                	jmp    4016fb <findNextFreeChunk+0x2f5>
  4016ed:	83 45 c4 01          	add    DWORD PTR [rbp-0x3c],0x1
  4016f1:	83 7d c4 07          	cmp    DWORD PTR [rbp-0x3c],0x7
  4016f5:	0f 8e 23 ff ff ff    	jle    40161e <findNextFreeChunk+0x218>
  4016fb:	48 83 7d c8 00       	cmp    QWORD PTR [rbp-0x38],0x0
  401700:	0f 85 20 03 00 00    	jne    401a26 <findNextFreeChunk+0x620>
  401706:	48 83 7d d8 00       	cmp    QWORD PTR [rbp-0x28],0x0
  40170b:	0f 85 db 02 00 00    	jne    4019ec <findNextFreeChunk+0x5e6>
  401711:	48 8b 45 d0          	mov    rax,QWORD PTR [rbp-0x30]
  401715:	48 c1 e0 04          	shl    rax,0x4
  401719:	48 89 c2             	mov    rdx,rax
  40171c:	48 c1 e2 06          	shl    rdx,0x6
  401720:	48 01 d0             	add    rax,rdx
  401723:	48 8d 48 28          	lea    rcx,[rax+0x28]
  401727:	48 8b 85 18 ff ff ff 	mov    rax,QWORD PTR [rbp-0xe8]
  40172e:	ba 00 00 00 00       	mov    edx,0x0
  401733:	48 89 ce             	mov    rsi,rcx
  401736:	48 89 c7             	mov    rdi,rax
  401739:	e8 62 f4 ff ff       	call   400ba0 <fseek@plt>
  40173e:	c7 45 ec 00 00 00 00 	mov    DWORD PTR [rbp-0x14],0x0
  401745:	eb 24                	jmp    40176b <findNextFreeChunk+0x365>
  401747:	8b 45 ec             	mov    eax,DWORD PTR [rbp-0x14]
  40174a:	c1 e0 03             	shl    eax,0x3
  40174d:	48 8b 55 e0          	mov    rdx,QWORD PTR [rbp-0x20]
  401751:	48 89 d3             	mov    rbx,rdx
  401754:	89 c1                	mov    ecx,eax
  401756:	48 d3 fb             	sar    rbx,cl
  401759:	48 89 d8             	mov    rax,rbx
  40175c:	89 c2                	mov    edx,eax
  40175e:	8b 45 ec             	mov    eax,DWORD PTR [rbp-0x14]
  401761:	48 98                	cdqe   
  401763:	88 54 05 80          	mov    BYTE PTR [rbp+rax*1-0x80],dl
  401767:	83 45 ec 01          	add    DWORD PTR [rbp-0x14],0x1
  40176b:	83 7d ec 07          	cmp    DWORD PTR [rbp-0x14],0x7
  40176f:	7e d6                	jle    401747 <findNextFreeChunk+0x341>
  401771:	48 8d 45 80          	lea    rax,[rbp-0x80]
  401775:	be 08 00 00 00       	mov    esi,0x8
  40177a:	48 89 c7             	mov    rdi,rax
  40177d:	e8 8a f6 ff ff       	call   400e0c <sanitizeFilename>
  401782:	48 8b 95 18 ff ff ff 	mov    rdx,QWORD PTR [rbp-0xe8]
  401789:	48 8d 45 80          	lea    rax,[rbp-0x80]
  40178d:	48 89 d1             	mov    rcx,rdx
  401790:	ba 01 00 00 00       	mov    edx,0x1
  401795:	be 08 00 00 00       	mov    esi,0x8
  40179a:	48 89 c7             	mov    rdi,rax
  40179d:	e8 3e f5 ff ff       	call   400ce0 <fwrite@plt>
  4017a2:	48 8b 45 e0          	mov    rax,QWORD PTR [rbp-0x20]
  4017a6:	48 89 45 d0          	mov    QWORD PTR [rbp-0x30],rax
  4017aa:	48 8b 45 d0          	mov    rax,QWORD PTR [rbp-0x30]
  4017ae:	48 c1 e0 04          	shl    rax,0x4
  4017b2:	48 89 c2             	mov    rdx,rax
  4017b5:	48 c1 e2 06          	shl    rdx,0x6
  4017b9:	48 01 d0             	add    rax,rdx
  4017bc:	48 8d 48 20          	lea    rcx,[rax+0x20]
  4017c0:	48 8b 85 18 ff ff ff 	mov    rax,QWORD PTR [rbp-0xe8]
  4017c7:	ba 00 00 00 00       	mov    edx,0x0
  4017cc:	48 89 ce             	mov    rsi,rcx
  4017cf:	48 89 c7             	mov    rdi,rax
  4017d2:	e8 c9 f3 ff ff       	call   400ba0 <fseek@plt>
  4017d7:	48 8b 85 18 ff ff ff 	mov    rax,QWORD PTR [rbp-0xe8]
  4017de:	48 89 c7             	mov    rdi,rax
  4017e1:	e8 8a f3 ff ff       	call   400b70 <ftell@plt>
  4017e6:	48 89 45 98          	mov    QWORD PTR [rbp-0x68],rax
  4017ea:	48 8b 05 9b 21 00 00 	mov    rax,QWORD PTR [rip+0x219b]        # 40398c <MAGIC_VALUE_FILE_ENTRY_LIST>
  4017f1:	48 89 05 c8 2d 20 00 	mov    QWORD PTR [rip+0x202dc8],rax        # 6045c0 <buffer>
  4017f8:	be 08 00 00 00       	mov    esi,0x8
  4017fd:	bf c0 45 60 00       	mov    edi,0x6045c0
  401802:	e8 05 f6 ff ff       	call   400e0c <sanitizeFilename>
  401807:	48 8b 85 18 ff ff ff 	mov    rax,QWORD PTR [rbp-0xe8]
  40180e:	48 89 c1             	mov    rcx,rax
  401811:	ba 01 00 00 00       	mov    edx,0x1
  401816:	be 08 00 00 00       	mov    esi,0x8
  40181b:	bf c0 45 60 00       	mov    edi,0x6045c0
  401820:	e8 bb f4 ff ff       	call   400ce0 <fwrite@plt>
  401825:	c7 45 c4 00 00 00 00 	mov    DWORD PTR [rbp-0x3c],0x0
  40182c:	eb 10                	jmp    40183e <findNextFreeChunk+0x438>
  40182e:	8b 45 c4             	mov    eax,DWORD PTR [rbp-0x3c]
  401831:	48 98                	cdqe   
  401833:	c6 80 c0 45 60 00 00 	mov    BYTE PTR [rax+0x6045c0],0x0
  40183a:	83 45 c4 01          	add    DWORD PTR [rbp-0x3c],0x1
  40183e:	81 7d c4 0f 04 00 00 	cmp    DWORD PTR [rbp-0x3c],0x40f
  401845:	7e e7                	jle    40182e <findNextFreeChunk+0x428>
  401847:	be 08 00 00 00       	mov    esi,0x8
  40184c:	bf c0 45 60 00       	mov    edi,0x6045c0
  401851:	e8 b6 f5 ff ff       	call   400e0c <sanitizeFilename>
  401856:	48 8b 85 18 ff ff ff 	mov    rax,QWORD PTR [rbp-0xe8]
  40185d:	48 89 c1             	mov    rcx,rax
  401860:	ba 01 00 00 00       	mov    edx,0x1
  401865:	be 08 00 00 00       	mov    esi,0x8
  40186a:	bf c0 45 60 00       	mov    edi,0x6045c0
  40186f:	e8 6c f4 ff ff       	call   400ce0 <fwrite@plt>
  401874:	c7 45 94 08 00 00 00 	mov    DWORD PTR [rbp-0x6c],0x8
  40187b:	c7 45 c4 00 00 00 00 	mov    DWORD PTR [rbp-0x3c],0x0
  401882:	e9 06 01 00 00       	jmp    40198d <findNextFreeChunk+0x587>
  401887:	c7 45 b4 00 00 00 00 	mov    DWORD PTR [rbp-0x4c],0x0
  40188e:	eb 10                	jmp    4018a0 <findNextFreeChunk+0x49a>
  401890:	8b 45 b4             	mov    eax,DWORD PTR [rbp-0x4c]
  401893:	48 98                	cdqe   
  401895:	c6 80 c0 45 60 00 00 	mov    BYTE PTR [rax+0x6045c0],0x0
  40189c:	83 45 b4 01          	add    DWORD PTR [rbp-0x4c],0x1
  4018a0:	83 7d b4 07          	cmp    DWORD PTR [rbp-0x4c],0x7
  4018a4:	7e ea                	jle    401890 <findNextFreeChunk+0x48a>
  4018a6:	be 08 00 00 00       	mov    esi,0x8
  4018ab:	bf c0 45 60 00       	mov    edi,0x6045c0
  4018b0:	e8 57 f5 ff ff       	call   400e0c <sanitizeFilename>
  4018b5:	48 8b 85 18 ff ff ff 	mov    rax,QWORD PTR [rbp-0xe8]
  4018bc:	48 89 c1             	mov    rcx,rax
  4018bf:	ba 01 00 00 00       	mov    edx,0x1
  4018c4:	be 08 00 00 00       	mov    esi,0x8
  4018c9:	bf c0 45 60 00       	mov    edi,0x6045c0
  4018ce:	e8 0d f4 ff ff       	call   400ce0 <fwrite@plt>
  4018d3:	48 8b 85 18 ff ff ff 	mov    rax,QWORD PTR [rbp-0xe8]
  4018da:	48 89 c1             	mov    rcx,rax
  4018dd:	ba 01 00 00 00       	mov    edx,0x1
  4018e2:	be 08 00 00 00       	mov    esi,0x8
  4018e7:	bf c0 45 60 00       	mov    edi,0x6045c0
  4018ec:	e8 ef f3 ff ff       	call   400ce0 <fwrite@plt>
  4018f1:	c7 45 b4 00 00 00 00 	mov    DWORD PTR [rbp-0x4c],0x0
  4018f8:	eb 10                	jmp    40190a <findNextFreeChunk+0x504>
  4018fa:	8b 45 b4             	mov    eax,DWORD PTR [rbp-0x4c]
  4018fd:	48 98                	cdqe   
  4018ff:	c6 80 c0 45 60 00 00 	mov    BYTE PTR [rax+0x6045c0],0x0
  401906:	83 45 b4 01          	add    DWORD PTR [rbp-0x4c],0x1
  40190a:	83 7d b4 0f          	cmp    DWORD PTR [rbp-0x4c],0xf
  40190e:	7e ea                	jle    4018fa <findNextFreeChunk+0x4f4>
  401910:	be 10 00 00 00       	mov    esi,0x10
  401915:	bf c0 45 60 00       	mov    edi,0x6045c0
  40191a:	e8 ed f4 ff ff       	call   400e0c <sanitizeFilename>
  40191f:	48 8b 85 18 ff ff ff 	mov    rax,QWORD PTR [rbp-0xe8]
  401926:	48 89 c1             	mov    rcx,rax
  401929:	ba 01 00 00 00       	mov    edx,0x1
  40192e:	be 10 00 00 00       	mov    esi,0x10
  401933:	bf c0 45 60 00       	mov    edi,0x6045c0
  401938:	e8 a3 f3 ff ff       	call   400ce0 <fwrite@plt>
  40193d:	c7 45 b4 00 00 00 00 	mov    DWORD PTR [rbp-0x4c],0x0
  401944:	eb 10                	jmp    401956 <findNextFreeChunk+0x550>
  401946:	8b 45 b4             	mov    eax,DWORD PTR [rbp-0x4c]
  401949:	48 98                	cdqe   
  40194b:	c6 80 c0 45 60 00 00 	mov    BYTE PTR [rax+0x6045c0],0x0
  401952:	83 45 b4 01          	add    DWORD PTR [rbp-0x4c],0x1
  401956:	83 7d b4 5f          	cmp    DWORD PTR [rbp-0x4c],0x5f
  40195a:	7e ea                	jle    401946 <findNextFreeChunk+0x540>
  40195c:	be 60 00 00 00       	mov    esi,0x60
  401961:	bf c0 45 60 00       	mov    edi,0x6045c0
  401966:	e8 a1 f4 ff ff       	call   400e0c <sanitizeFilename>
  40196b:	48 8b 85 18 ff ff ff 	mov    rax,QWORD PTR [rbp-0xe8]
  401972:	48 89 c1             	mov    rcx,rax
  401975:	ba 01 00 00 00       	mov    edx,0x1
  40197a:	be 60 00 00 00       	mov    esi,0x60
  40197f:	bf c0 45 60 00       	mov    edi,0x6045c0
  401984:	e8 57 f3 ff ff       	call   400ce0 <fwrite@plt>
  401989:	83 45 c4 01          	add    DWORD PTR [rbp-0x3c],0x1
  40198d:	8b 45 c4             	mov    eax,DWORD PTR [rbp-0x3c]
  401990:	3b 45 94             	cmp    eax,DWORD PTR [rbp-0x6c]
  401993:	0f 8c ee fe ff ff    	jl     401887 <findNextFreeChunk+0x481>
  401999:	48 8b 45 98          	mov    rax,QWORD PTR [rbp-0x68]
  40199d:	48 8d 48 10          	lea    rcx,[rax+0x10]
  4019a1:	48 8b 85 18 ff ff ff 	mov    rax,QWORD PTR [rbp-0xe8]
  4019a8:	ba 00 00 00 00       	mov    edx,0x0
  4019ad:	48 89 ce             	mov    rsi,rcx
  4019b0:	48 89 c7             	mov    rdi,rax
  4019b3:	e8 e8 f1 ff ff       	call   400ba0 <fseek@plt>
  4019b8:	48 8b 85 18 ff ff ff 	mov    rax,QWORD PTR [rbp-0xe8]
  4019bf:	48 89 c7             	mov    rdi,rax
  4019c2:	e8 3e f5 ff ff       	call   400f05 <createFileEntry>
  4019c7:	48 89 45 e0          	mov    QWORD PTR [rbp-0x20],rax
  4019cb:	48 8b 4d 98          	mov    rcx,QWORD PTR [rbp-0x68]
  4019cf:	48 8b 85 18 ff ff ff 	mov    rax,QWORD PTR [rbp-0xe8]
  4019d6:	ba 00 00 00 00       	mov    edx,0x0
  4019db:	48 89 ce             	mov    rsi,rcx
  4019de:	48 89 c7             	mov    rdi,rax
  4019e1:	e8 ba f1 ff ff       	call   400ba0 <fseek@plt>
  4019e6:	90                   	nop
  4019e7:	e9 f3 fa ff ff       	jmp    4014df <findNextFreeChunk+0xd9>
  4019ec:	48 8b 45 d8          	mov    rax,QWORD PTR [rbp-0x28]
  4019f0:	48 c1 e0 04          	shl    rax,0x4
  4019f4:	48 89 c2             	mov    rdx,rax
  4019f7:	48 c1 e2 06          	shl    rdx,0x6
  4019fb:	48 01 d0             	add    rax,rdx
  4019fe:	48 8d 48 20          	lea    rcx,[rax+0x20]
  401a02:	48 8b 85 18 ff ff ff 	mov    rax,QWORD PTR [rbp-0xe8]
  401a09:	ba 00 00 00 00       	mov    edx,0x0
  401a0e:	48 89 ce             	mov    rsi,rcx
  401a11:	48 89 c7             	mov    rdi,rax
  401a14:	e8 87 f1 ff ff       	call   400ba0 <fseek@plt>
  401a19:	48 8b 45 d8          	mov    rax,QWORD PTR [rbp-0x28]
  401a1d:	48 89 45 d0          	mov    QWORD PTR [rbp-0x30],rax
  401a21:	e9 b9 fa ff ff       	jmp    4014df <findNextFreeChunk+0xd9>
  401a26:	90                   	nop
  401a27:	48 8b 4d c8          	mov    rcx,QWORD PTR [rbp-0x38]
  401a2b:	48 8b 85 18 ff ff ff 	mov    rax,QWORD PTR [rbp-0xe8]
  401a32:	ba 00 00 00 00       	mov    edx,0x0
  401a37:	48 89 ce             	mov    rsi,rcx
  401a3a:	48 89 c7             	mov    rdi,rax
  401a3d:	e8 5e f1 ff ff       	call   400ba0 <fseek@plt>
  401a42:	c7 45 ec 00 00 00 00 	mov    DWORD PTR [rbp-0x14],0x0
  401a49:	eb 24                	jmp    401a6f <findNextFreeChunk+0x669>
  401a4b:	8b 45 ec             	mov    eax,DWORD PTR [rbp-0x14]
  401a4e:	c1 e0 03             	shl    eax,0x3
  401a51:	48 8b 55 e0          	mov    rdx,QWORD PTR [rbp-0x20]
  401a55:	48 89 d3             	mov    rbx,rdx
  401a58:	89 c1                	mov    ecx,eax
  401a5a:	48 d3 fb             	sar    rbx,cl
  401a5d:	48 89 d8             	mov    rax,rbx
  401a60:	89 c2                	mov    edx,eax
  401a62:	8b 45 ec             	mov    eax,DWORD PTR [rbp-0x14]
  401a65:	48 98                	cdqe   
  401a67:	88 54 05 80          	mov    BYTE PTR [rbp+rax*1-0x80],dl
  401a6b:	83 45 ec 01          	add    DWORD PTR [rbp-0x14],0x1
  401a6f:	83 7d ec 07          	cmp    DWORD PTR [rbp-0x14],0x7
  401a73:	7e d6                	jle    401a4b <findNextFreeChunk+0x645>
  401a75:	48 8d 45 80          	lea    rax,[rbp-0x80]
  401a79:	be 08 00 00 00       	mov    esi,0x8
  401a7e:	48 89 c7             	mov    rdi,rax
  401a81:	e8 86 f3 ff ff       	call   400e0c <sanitizeFilename>
  401a86:	48 8b 95 18 ff ff ff 	mov    rdx,QWORD PTR [rbp-0xe8]
  401a8d:	48 8d 45 80          	lea    rax,[rbp-0x80]
  401a91:	48 89 d1             	mov    rcx,rdx
  401a94:	ba 01 00 00 00       	mov    edx,0x1
  401a99:	be 08 00 00 00       	mov    esi,0x8
  401a9e:	48 89 c7             	mov    rdi,rax
  401aa1:	e8 3a f2 ff ff       	call   400ce0 <fwrite@plt>
  401aa6:	c7 45 ec 00 00 00 00 	mov    DWORD PTR [rbp-0x14],0x0
  401aad:	eb 24                	jmp    401ad3 <findNextFreeChunk+0x6cd>
  401aaf:	8b 45 ec             	mov    eax,DWORD PTR [rbp-0x14]
  401ab2:	c1 e0 03             	shl    eax,0x3
  401ab5:	48 8b 55 a0          	mov    rdx,QWORD PTR [rbp-0x60]
  401ab9:	48 89 d3             	mov    rbx,rdx
  401abc:	89 c1                	mov    ecx,eax
  401abe:	48 d3 fb             	sar    rbx,cl
  401ac1:	48 89 d8             	mov    rax,rbx
  401ac4:	89 c2                	mov    edx,eax
  401ac6:	8b 45 ec             	mov    eax,DWORD PTR [rbp-0x14]
  401ac9:	48 98                	cdqe   
  401acb:	88 54 05 80          	mov    BYTE PTR [rbp+rax*1-0x80],dl
  401acf:	83 45 ec 01          	add    DWORD PTR [rbp-0x14],0x1
  401ad3:	83 7d ec 07          	cmp    DWORD PTR [rbp-0x14],0x7
  401ad7:	7e d6                	jle    401aaf <findNextFreeChunk+0x6a9>
  401ad9:	48 8d 45 80          	lea    rax,[rbp-0x80]
  401add:	be 08 00 00 00       	mov    esi,0x8
  401ae2:	48 89 c7             	mov    rdi,rax
  401ae5:	e8 22 f3 ff ff       	call   400e0c <sanitizeFilename>
  401aea:	48 8b 95 18 ff ff ff 	mov    rdx,QWORD PTR [rbp-0xe8]
  401af1:	48 8d 45 80          	lea    rax,[rbp-0x80]
  401af5:	48 89 d1             	mov    rcx,rdx
  401af8:	ba 01 00 00 00       	mov    edx,0x1
  401afd:	be 08 00 00 00       	mov    esi,0x8
  401b02:	48 89 c7             	mov    rdi,rax
  401b05:	e8 d6 f1 ff ff       	call   400ce0 <fwrite@plt>
  401b0a:	48 8b 85 18 ff ff ff 	mov    rax,QWORD PTR [rbp-0xe8]
  401b11:	48 89 c7             	mov    rdi,rax
  401b14:	e8 57 f0 ff ff       	call   400b70 <ftell@plt>
  401b19:	48 8b 95 00 ff ff ff 	mov    rdx,QWORD PTR [rbp-0x100]
  401b20:	48 89 02             	mov    QWORD PTR [rdx],rax
  401b23:	48 8b 85 18 ff ff ff 	mov    rax,QWORD PTR [rbp-0xe8]
  401b2a:	ba 01 00 00 00       	mov    edx,0x1
  401b2f:	be 10 00 00 00       	mov    esi,0x10
  401b34:	48 89 c7             	mov    rdi,rax
  401b37:	e8 64 f0 ff ff       	call   400ba0 <fseek@plt>
  401b3c:	48 8d 95 20 ff ff ff 	lea    rdx,[rbp-0xe0]
  401b43:	48 8b 85 08 ff ff ff 	mov    rax,QWORD PTR [rbp-0xf8]
  401b4a:	48 89 d6             	mov    rsi,rdx
  401b4d:	48 89 c7             	mov    rdi,rax
  401b50:	e8 41 f3 ff ff       	call   400e96 <createHashOfPassword>
  401b55:	48 8d 85 20 ff ff ff 	lea    rax,[rbp-0xe0]
  401b5c:	be 60 00 00 00       	mov    esi,0x60
  401b61:	48 89 c7             	mov    rdi,rax
  401b64:	e8 a3 f2 ff ff       	call   400e0c <sanitizeFilename>
  401b69:	48 8b 95 18 ff ff ff 	mov    rdx,QWORD PTR [rbp-0xe8]
  401b70:	48 8d 85 20 ff ff ff 	lea    rax,[rbp-0xe0]
  401b77:	48 89 d1             	mov    rcx,rdx
  401b7a:	ba 01 00 00 00       	mov    edx,0x1
  401b7f:	be 60 00 00 00       	mov    esi,0x60
  401b84:	48 89 c7             	mov    rdi,rax
  401b87:	e8 54 f1 ff ff       	call   400ce0 <fwrite@plt>
  401b8c:	48 8b 45 e0          	mov    rax,QWORD PTR [rbp-0x20]
  401b90:	48 81 c4 f8 00 00 00 	add    rsp,0xf8
  401b97:	5b                   	pop    rbx
  401b98:	5d                   	pop    rbp
  401b99:	c3                   	ret    

0000000000401b9a <encryptDecryptData>:
  401b9a:	55                   	push   rbp
  401b9b:	48 89 e5             	mov    rbp,rsp
  401b9e:	48 83 ec 20          	sub    rsp,0x20
  401ba2:	48 89 7d e8          	mov    QWORD PTR [rbp-0x18],rdi
  401ba6:	48 8b 45 e8          	mov    rax,QWORD PTR [rbp-0x18]
  401baa:	ba 00 00 00 00       	mov    edx,0x0
  401baf:	be 00 00 00 00       	mov    esi,0x0
  401bb4:	48 89 c7             	mov    rdi,rax
  401bb7:	e8 e4 ef ff ff       	call   400ba0 <fseek@plt>
  401bbc:	48 8b 55 e8          	mov    rdx,QWORD PTR [rbp-0x18]
  401bc0:	48 8d 45 f0          	lea    rax,[rbp-0x10]
  401bc4:	48 89 d1             	mov    rcx,rdx
  401bc7:	ba 0c 00 00 00       	mov    edx,0xc
  401bcc:	be 01 00 00 00       	mov    esi,0x1
  401bd1:	48 89 c7             	mov    rdi,rax
  401bd4:	e8 87 f0 ff ff       	call   400c60 <fread@plt>
  401bd9:	0f b6 55 f0          	movzx  edx,BYTE PTR [rbp-0x10]
  401bdd:	0f b6 05 9c 1d 00 00 	movzx  eax,BYTE PTR [rip+0x1d9c]        # 403980 <MAGIC_VALUE>
  401be4:	38 c2                	cmp    dl,al
  401be6:	0f 85 b4 00 00 00    	jne    401ca0 <encryptDecryptData+0x106>
  401bec:	0f b6 55 f1          	movzx  edx,BYTE PTR [rbp-0xf]
  401bf0:	0f b6 05 8a 1d 00 00 	movzx  eax,BYTE PTR [rip+0x1d8a]        # 403981 <MAGIC_VALUE+0x1>
  401bf7:	38 c2                	cmp    dl,al
  401bf9:	0f 85 a1 00 00 00    	jne    401ca0 <encryptDecryptData+0x106>
  401bff:	0f b6 55 f2          	movzx  edx,BYTE PTR [rbp-0xe]
  401c03:	0f b6 05 78 1d 00 00 	movzx  eax,BYTE PTR [rip+0x1d78]        # 403982 <MAGIC_VALUE+0x2>
  401c0a:	38 c2                	cmp    dl,al
  401c0c:	0f 85 8e 00 00 00    	jne    401ca0 <encryptDecryptData+0x106>
  401c12:	0f b6 55 f3          	movzx  edx,BYTE PTR [rbp-0xd]
  401c16:	0f b6 05 66 1d 00 00 	movzx  eax,BYTE PTR [rip+0x1d66]        # 403983 <MAGIC_VALUE+0x3>
  401c1d:	38 c2                	cmp    dl,al
  401c1f:	75 7f                	jne    401ca0 <encryptDecryptData+0x106>
  401c21:	0f b6 55 f4          	movzx  edx,BYTE PTR [rbp-0xc]
  401c25:	0f b6 05 58 1d 00 00 	movzx  eax,BYTE PTR [rip+0x1d58]        # 403984 <MAGIC_VALUE+0x4>
  401c2c:	38 c2                	cmp    dl,al
  401c2e:	75 70                	jne    401ca0 <encryptDecryptData+0x106>
  401c30:	0f b6 55 f5          	movzx  edx,BYTE PTR [rbp-0xb]
  401c34:	0f b6 05 4a 1d 00 00 	movzx  eax,BYTE PTR [rip+0x1d4a]        # 403985 <MAGIC_VALUE+0x5>
  401c3b:	38 c2                	cmp    dl,al
  401c3d:	75 61                	jne    401ca0 <encryptDecryptData+0x106>
  401c3f:	0f b6 55 f6          	movzx  edx,BYTE PTR [rbp-0xa]
  401c43:	0f b6 05 3c 1d 00 00 	movzx  eax,BYTE PTR [rip+0x1d3c]        # 403986 <MAGIC_VALUE+0x6>
  401c4a:	38 c2                	cmp    dl,al
  401c4c:	75 52                	jne    401ca0 <encryptDecryptData+0x106>
  401c4e:	0f b6 55 f7          	movzx  edx,BYTE PTR [rbp-0x9]
  401c52:	0f b6 05 2e 1d 00 00 	movzx  eax,BYTE PTR [rip+0x1d2e]        # 403987 <MAGIC_VALUE+0x7>
  401c59:	38 c2                	cmp    dl,al
  401c5b:	75 43                	jne    401ca0 <encryptDecryptData+0x106>
  401c5d:	0f b6 55 f8          	movzx  edx,BYTE PTR [rbp-0x8]
  401c61:	0f b6 05 20 1d 00 00 	movzx  eax,BYTE PTR [rip+0x1d20]        # 403988 <MAGIC_VALUE+0x8>
  401c68:	38 c2                	cmp    dl,al
  401c6a:	75 34                	jne    401ca0 <encryptDecryptData+0x106>
  401c6c:	0f b6 55 f9          	movzx  edx,BYTE PTR [rbp-0x7]
  401c70:	0f b6 05 12 1d 00 00 	movzx  eax,BYTE PTR [rip+0x1d12]        # 403989 <MAGIC_VALUE+0x9>
  401c77:	38 c2                	cmp    dl,al
  401c79:	75 25                	jne    401ca0 <encryptDecryptData+0x106>
  401c7b:	0f b6 55 fa          	movzx  edx,BYTE PTR [rbp-0x6]
  401c7f:	0f b6 05 04 1d 00 00 	movzx  eax,BYTE PTR [rip+0x1d04]        # 40398a <MAGIC_VALUE+0xa>
  401c86:	38 c2                	cmp    dl,al
  401c88:	75 16                	jne    401ca0 <encryptDecryptData+0x106>
  401c8a:	0f b6 55 fb          	movzx  edx,BYTE PTR [rbp-0x5]
  401c8e:	0f b6 05 f6 1c 00 00 	movzx  eax,BYTE PTR [rip+0x1cf6]        # 40398b <MAGIC_VALUE+0xb>
  401c95:	38 c2                	cmp    dl,al
  401c97:	75 07                	jne    401ca0 <encryptDecryptData+0x106>
  401c99:	b8 01 00 00 00       	mov    eax,0x1
  401c9e:	eb 05                	jmp    401ca5 <encryptDecryptData+0x10b>
  401ca0:	b8 00 00 00 00       	mov    eax,0x0
  401ca5:	c9                   	leave  
  401ca6:	c3                   	ret    

0000000000401ca7 <writeFileToArchiv>:
  401ca7:	55                   	push   rbp
  401ca8:	48 89 e5             	mov    rbp,rsp
  401cab:	48 81 ec 90 00 00 00 	sub    rsp,0x90
  401cb2:	48 89 bd 78 ff ff ff 	mov    QWORD PTR [rbp-0x88],rdi
  401cb9:	bf f0 39 40 00       	mov    edi,0x4039f0
  401cbe:	e8 cd ee ff ff       	call   400b90 <puts@plt>
  401cc3:	bf 10 3a 40 00       	mov    edi,0x403a10
  401cc8:	e8 c3 ee ff ff       	call   400b90 <puts@plt>
  401ccd:	48 c7 45 f0 00 00 00 	mov    QWORD PTR [rbp-0x10],0x0
  401cd4:	00 
  401cd5:	48 8b 85 78 ff ff ff 	mov    rax,QWORD PTR [rbp-0x88]
  401cdc:	ba 00 00 00 00       	mov    edx,0x0
  401ce1:	be 20 00 00 00       	mov    esi,0x20
  401ce6:	48 89 c7             	mov    rdi,rax
  401ce9:	e8 b2 ee ff ff       	call   400ba0 <fseek@plt>
  401cee:	48 8b 95 78 ff ff ff 	mov    rdx,QWORD PTR [rbp-0x88]
  401cf5:	48 8d 45 80          	lea    rax,[rbp-0x80]
  401cf9:	48 89 d1             	mov    rcx,rdx
  401cfc:	ba 01 00 00 00       	mov    edx,0x1
  401d01:	be 08 00 00 00       	mov    esi,0x8
  401d06:	48 89 c7             	mov    rdi,rax
  401d09:	e8 52 ef ff ff       	call   400c60 <fread@plt>
  401d0e:	48 8d 45 80          	lea    rax,[rbp-0x80]
  401d12:	be 08 00 00 00       	mov    esi,0x8
  401d17:	48 89 c7             	mov    rdi,rax
  401d1a:	e8 ed f0 ff ff       	call   400e0c <sanitizeFilename>
  401d1f:	0f b6 55 80          	movzx  edx,BYTE PTR [rbp-0x80]
  401d23:	0f b6 05 62 1c 00 00 	movzx  eax,BYTE PTR [rip+0x1c62]        # 40398c <MAGIC_VALUE_FILE_ENTRY_LIST>
  401d2a:	38 c2                	cmp    dl,al
  401d2c:	75 69                	jne    401d97 <writeFileToArchiv+0xf0>
  401d2e:	0f b6 55 81          	movzx  edx,BYTE PTR [rbp-0x7f]
  401d32:	0f b6 05 54 1c 00 00 	movzx  eax,BYTE PTR [rip+0x1c54]        # 40398d <MAGIC_VALUE_FILE_ENTRY_LIST+0x1>
  401d39:	38 c2                	cmp    dl,al
  401d3b:	75 5a                	jne    401d97 <writeFileToArchiv+0xf0>
  401d3d:	0f b6 55 82          	movzx  edx,BYTE PTR [rbp-0x7e]
  401d41:	0f b6 05 46 1c 00 00 	movzx  eax,BYTE PTR [rip+0x1c46]        # 40398e <MAGIC_VALUE_FILE_ENTRY_LIST+0x2>
  401d48:	38 c2                	cmp    dl,al
  401d4a:	75 4b                	jne    401d97 <writeFileToArchiv+0xf0>
  401d4c:	0f b6 55 83          	movzx  edx,BYTE PTR [rbp-0x7d]
  401d50:	0f b6 05 38 1c 00 00 	movzx  eax,BYTE PTR [rip+0x1c38]        # 40398f <MAGIC_VALUE_FILE_ENTRY_LIST+0x3>
  401d57:	38 c2                	cmp    dl,al
  401d59:	75 3c                	jne    401d97 <writeFileToArchiv+0xf0>
  401d5b:	0f b6 55 84          	movzx  edx,BYTE PTR [rbp-0x7c]
  401d5f:	0f b6 05 2a 1c 00 00 	movzx  eax,BYTE PTR [rip+0x1c2a]        # 403990 <MAGIC_VALUE_FILE_ENTRY_LIST+0x4>
  401d66:	38 c2                	cmp    dl,al
  401d68:	75 2d                	jne    401d97 <writeFileToArchiv+0xf0>
  401d6a:	0f b6 55 85          	movzx  edx,BYTE PTR [rbp-0x7b]
  401d6e:	0f b6 05 1c 1c 00 00 	movzx  eax,BYTE PTR [rip+0x1c1c]        # 403991 <MAGIC_VALUE_FILE_ENTRY_LIST+0x5>
  401d75:	38 c2                	cmp    dl,al
  401d77:	75 1e                	jne    401d97 <writeFileToArchiv+0xf0>
  401d79:	0f b6 55 86          	movzx  edx,BYTE PTR [rbp-0x7a]
  401d7d:	0f b6 05 0e 1c 00 00 	movzx  eax,BYTE PTR [rip+0x1c0e]        # 403992 <MAGIC_VALUE_FILE_ENTRY_LIST+0x6>
  401d84:	38 c2                	cmp    dl,al
  401d86:	75 0f                	jne    401d97 <writeFileToArchiv+0xf0>
  401d88:	0f b6 55 87          	movzx  edx,BYTE PTR [rbp-0x79]
  401d8c:	0f b6 05 00 1c 00 00 	movzx  eax,BYTE PTR [rip+0x1c00]        # 403993 <MAGIC_VALUE_FILE_ENTRY_LIST+0x7>
  401d93:	38 c2                	cmp    dl,al
  401d95:	74 14                	je     401dab <writeFileToArchiv+0x104>
  401d97:	bf b8 39 40 00       	mov    edi,0x4039b8
  401d9c:	e8 ef ed ff ff       	call   400b90 <puts@plt>
  401da1:	bf 01 00 00 00       	mov    edi,0x1
  401da6:	e8 05 ee ff ff       	call   400bb0 <exit@plt>
  401dab:	48 8b 95 78 ff ff ff 	mov    rdx,QWORD PTR [rbp-0x88]
  401db2:	48 8d 45 80          	lea    rax,[rbp-0x80]
  401db6:	48 89 d1             	mov    rcx,rdx
  401db9:	ba 01 00 00 00       	mov    edx,0x1
  401dbe:	be 08 00 00 00       	mov    esi,0x8
  401dc3:	48 89 c7             	mov    rdi,rax
  401dc6:	e8 95 ee ff ff       	call   400c60 <fread@plt>
  401dcb:	48 8d 45 80          	lea    rax,[rbp-0x80]
  401dcf:	be 08 00 00 00       	mov    esi,0x8
  401dd4:	48 89 c7             	mov    rdi,rax
  401dd7:	e8 30 f0 ff ff       	call   400e0c <sanitizeFilename>
  401ddc:	48 c7 45 f8 00 00 00 	mov    QWORD PTR [rbp-0x8],0x0
  401de3:	00 
  401de4:	c7 45 ec 00 00 00 00 	mov    DWORD PTR [rbp-0x14],0x0
  401deb:	eb 2e                	jmp    401e1b <writeFileToArchiv+0x174>
  401ded:	48 8b 45 f8          	mov    rax,QWORD PTR [rbp-0x8]
  401df1:	48 89 c2             	mov    rdx,rax
  401df4:	48 c1 e2 08          	shl    rdx,0x8
  401df8:	b8 07 00 00 00       	mov    eax,0x7
  401dfd:	2b 45 ec             	sub    eax,DWORD PTR [rbp-0x14]
  401e00:	48 98                	cdqe   
  401e02:	0f b6 44 05 80       	movzx  eax,BYTE PTR [rbp+rax*1-0x80]
  401e07:	48 0f be c0          	movsx  rax,al
  401e0b:	25 ff 00 00 00       	and    eax,0xff
  401e10:	48 09 d0             	or     rax,rdx
  401e13:	48 89 45 f8          	mov    QWORD PTR [rbp-0x8],rax
  401e17:	83 45 ec 01          	add    DWORD PTR [rbp-0x14],0x1
  401e1b:	83 7d ec 07          	cmp    DWORD PTR [rbp-0x14],0x7
  401e1f:	7e cc                	jle    401ded <writeFileToArchiv+0x146>
  401e21:	c7 45 e8 00 00 00 00 	mov    DWORD PTR [rbp-0x18],0x0
  401e28:	e9 72 01 00 00       	jmp    401f9f <writeFileToArchiv+0x2f8>
  401e2d:	48 8b 45 f0          	mov    rax,QWORD PTR [rbp-0x10]
  401e31:	48 c1 e0 04          	shl    rax,0x4
  401e35:	48 89 c2             	mov    rdx,rax
  401e38:	48 c1 e2 06          	shl    rdx,0x6
  401e3c:	48 01 d0             	add    rax,rdx
  401e3f:	48 8d 50 38          	lea    rdx,[rax+0x38]
  401e43:	8b 45 e8             	mov    eax,DWORD PTR [rbp-0x18]
  401e46:	c1 e0 07             	shl    eax,0x7
  401e49:	48 98                	cdqe   
  401e4b:	48 8d 0c 02          	lea    rcx,[rdx+rax*1]
  401e4f:	48 8b 85 78 ff ff ff 	mov    rax,QWORD PTR [rbp-0x88]
  401e56:	ba 00 00 00 00       	mov    edx,0x0
  401e5b:	48 89 ce             	mov    rsi,rcx
  401e5e:	48 89 c7             	mov    rdi,rax
  401e61:	e8 3a ed ff ff       	call   400ba0 <fseek@plt>
  401e66:	48 8b 95 78 ff ff ff 	mov    rdx,QWORD PTR [rbp-0x88]
  401e6d:	48 8d 45 80          	lea    rax,[rbp-0x80]
  401e71:	48 89 d1             	mov    rcx,rdx
  401e74:	ba 01 00 00 00       	mov    edx,0x1
  401e79:	be 08 00 00 00       	mov    esi,0x8
  401e7e:	48 89 c7             	mov    rdi,rax
  401e81:	e8 da ed ff ff       	call   400c60 <fread@plt>
  401e86:	48 8d 45 80          	lea    rax,[rbp-0x80]
  401e8a:	be 08 00 00 00       	mov    esi,0x8
  401e8f:	48 89 c7             	mov    rdi,rax
  401e92:	e8 75 ef ff ff       	call   400e0c <sanitizeFilename>
  401e97:	48 c7 45 e0 00 00 00 	mov    QWORD PTR [rbp-0x20],0x0
  401e9e:	00 
  401e9f:	c7 45 ec 00 00 00 00 	mov    DWORD PTR [rbp-0x14],0x0
  401ea6:	eb 2e                	jmp    401ed6 <writeFileToArchiv+0x22f>
  401ea8:	48 8b 45 e0          	mov    rax,QWORD PTR [rbp-0x20]
  401eac:	48 89 c2             	mov    rdx,rax
  401eaf:	48 c1 e2 08          	shl    rdx,0x8
  401eb3:	b8 07 00 00 00       	mov    eax,0x7
  401eb8:	2b 45 ec             	sub    eax,DWORD PTR [rbp-0x14]
  401ebb:	48 98                	cdqe   
  401ebd:	0f b6 44 05 80       	movzx  eax,BYTE PTR [rbp+rax*1-0x80]
  401ec2:	48 0f be c0          	movsx  rax,al
  401ec6:	25 ff 00 00 00       	and    eax,0xff
  401ecb:	48 09 d0             	or     rax,rdx
  401ece:	48 89 45 e0          	mov    QWORD PTR [rbp-0x20],rax
  401ed2:	83 45 ec 01          	add    DWORD PTR [rbp-0x14],0x1
  401ed6:	83 7d ec 07          	cmp    DWORD PTR [rbp-0x14],0x7
  401eda:	7e cc                	jle    401ea8 <writeFileToArchiv+0x201>
  401edc:	48 83 7d e0 00       	cmp    QWORD PTR [rbp-0x20],0x0
  401ee1:	0f 84 b3 00 00 00    	je     401f9a <writeFileToArchiv+0x2f3>
  401ee7:	48 8b 45 f0          	mov    rax,QWORD PTR [rbp-0x10]
  401eeb:	48 c1 e0 04          	shl    rax,0x4
  401eef:	48 89 c2             	mov    rdx,rax
  401ef2:	48 c1 e2 06          	shl    rdx,0x6
  401ef6:	48 01 d0             	add    rax,rdx
  401ef9:	48 8d 50 50          	lea    rdx,[rax+0x50]
  401efd:	8b 45 e8             	mov    eax,DWORD PTR [rbp-0x18]
  401f00:	c1 e0 07             	shl    eax,0x7
  401f03:	48 98                	cdqe   
  401f05:	48 8d 0c 02          	lea    rcx,[rdx+rax*1]
  401f09:	48 8b 85 78 ff ff ff 	mov    rax,QWORD PTR [rbp-0x88]
  401f10:	ba 00 00 00 00       	mov    edx,0x0
  401f15:	48 89 ce             	mov    rsi,rcx
  401f18:	48 89 c7             	mov    rdi,rax
  401f1b:	e8 80 ec ff ff       	call   400ba0 <fseek@plt>
  401f20:	48 8b 95 78 ff ff ff 	mov    rdx,QWORD PTR [rbp-0x88]
  401f27:	48 8d 45 80          	lea    rax,[rbp-0x80]
  401f2b:	48 89 d1             	mov    rcx,rdx
  401f2e:	ba 01 00 00 00       	mov    edx,0x1
  401f33:	be 60 00 00 00       	mov    esi,0x60
  401f38:	48 89 c7             	mov    rdi,rax
  401f3b:	e8 20 ed ff ff       	call   400c60 <fread@plt>
  401f40:	48 8d 45 80          	lea    rax,[rbp-0x80]
  401f44:	be 60 00 00 00       	mov    esi,0x60
  401f49:	48 89 c7             	mov    rdi,rax
  401f4c:	e8 bb ee ff ff       	call   400e0c <sanitizeFilename>
  401f51:	48 8b 45 e0          	mov    rax,QWORD PTR [rbp-0x20]
  401f55:	48 c1 e0 04          	shl    rax,0x4
  401f59:	48 89 c2             	mov    rdx,rax
  401f5c:	48 c1 e2 06          	shl    rdx,0x6
  401f60:	48 8d 0c 10          	lea    rcx,[rax+rdx*1]
  401f64:	48 ba cf f7 53 e3 a5 	movabs rdx,0x20c49ba5e353f7cf
  401f6b:	9b c4 20 
  401f6e:	48 89 c8             	mov    rax,rcx
  401f71:	48 f7 ea             	imul   rdx
  401f74:	48 c1 fa 07          	sar    rdx,0x7
  401f78:	48 89 c8             	mov    rax,rcx
  401f7b:	48 c1 f8 3f          	sar    rax,0x3f
  401f7f:	48 29 c2             	sub    rdx,rax
  401f82:	48 8d 45 80          	lea    rax,[rbp-0x80]
  401f86:	48 89 c6             	mov    rsi,rax
  401f89:	bf 61 3a 40 00       	mov    edi,0x403a61
  401f8e:	b8 00 00 00 00       	mov    eax,0x0
  401f93:	e8 c8 eb ff ff       	call   400b60 <printf@plt>
  401f98:	eb 01                	jmp    401f9b <writeFileToArchiv+0x2f4>
  401f9a:	90                   	nop
  401f9b:	83 45 e8 01          	add    DWORD PTR [rbp-0x18],0x1
  401f9f:	83 7d e8 07          	cmp    DWORD PTR [rbp-0x18],0x7
  401fa3:	0f 8e 84 fe ff ff    	jle    401e2d <writeFileToArchiv+0x186>
  401fa9:	48 83 7d f8 00       	cmp    QWORD PTR [rbp-0x8],0x0
  401fae:	74 3a                	je     401fea <writeFileToArchiv+0x343>
  401fb0:	48 8b 45 f8          	mov    rax,QWORD PTR [rbp-0x8]
  401fb4:	48 c1 e0 04          	shl    rax,0x4
  401fb8:	48 89 c2             	mov    rdx,rax
  401fbb:	48 c1 e2 06          	shl    rdx,0x6
  401fbf:	48 01 d0             	add    rax,rdx
  401fc2:	48 8d 48 20          	lea    rcx,[rax+0x20]
  401fc6:	48 8b 85 78 ff ff ff 	mov    rax,QWORD PTR [rbp-0x88]
  401fcd:	ba 00 00 00 00       	mov    edx,0x0
  401fd2:	48 89 ce             	mov    rsi,rcx
  401fd5:	48 89 c7             	mov    rdi,rax
  401fd8:	e8 c3 eb ff ff       	call   400ba0 <fseek@plt>
  401fdd:	48 8b 45 f8          	mov    rax,QWORD PTR [rbp-0x8]
  401fe1:	48 89 45 f0          	mov    QWORD PTR [rbp-0x10],rax
  401fe5:	e9 04 fd ff ff       	jmp    401cee <writeFileToArchiv+0x47>
  401fea:	90                   	nop
  401feb:	c9                   	leave  
  401fec:	c3                   	ret    

0000000000401fed <extractFileFromArchiv>:
  401fed:	55                   	push   rbp
  401fee:	48 89 e5             	mov    rbp,rsp
  401ff1:	48 81 ec 90 00 00 00 	sub    rsp,0x90
  401ff8:	48 89 bd 78 ff ff ff 	mov    QWORD PTR [rbp-0x88],rdi
  401fff:	48 89 b5 70 ff ff ff 	mov    QWORD PTR [rbp-0x90],rsi
  402006:	48 c7 45 f0 00 00 00 	mov    QWORD PTR [rbp-0x10],0x0
  40200d:	00 
  40200e:	48 c7 45 e8 00 00 00 	mov    QWORD PTR [rbp-0x18],0x0
  402015:	00 
  402016:	48 8b 85 78 ff ff ff 	mov    rax,QWORD PTR [rbp-0x88]
  40201d:	ba 00 00 00 00       	mov    edx,0x0
  402022:	be 20 00 00 00       	mov    esi,0x20
  402027:	48 89 c7             	mov    rdi,rax
  40202a:	e8 71 eb ff ff       	call   400ba0 <fseek@plt>
  40202f:	48 8b 95 78 ff ff ff 	mov    rdx,QWORD PTR [rbp-0x88]
  402036:	48 8d 45 80          	lea    rax,[rbp-0x80]
  40203a:	48 89 d1             	mov    rcx,rdx
  40203d:	ba 01 00 00 00       	mov    edx,0x1
  402042:	be 08 00 00 00       	mov    esi,0x8
  402047:	48 89 c7             	mov    rdi,rax
  40204a:	e8 11 ec ff ff       	call   400c60 <fread@plt>
  40204f:	48 8d 45 80          	lea    rax,[rbp-0x80]
  402053:	be 08 00 00 00       	mov    esi,0x8
  402058:	48 89 c7             	mov    rdi,rax
  40205b:	e8 ac ed ff ff       	call   400e0c <sanitizeFilename>
  402060:	0f b6 55 80          	movzx  edx,BYTE PTR [rbp-0x80]
  402064:	0f b6 05 21 19 00 00 	movzx  eax,BYTE PTR [rip+0x1921]        # 40398c <MAGIC_VALUE_FILE_ENTRY_LIST>
  40206b:	38 c2                	cmp    dl,al
  40206d:	75 69                	jne    4020d8 <extractFileFromArchiv+0xeb>
  40206f:	0f b6 55 81          	movzx  edx,BYTE PTR [rbp-0x7f]
  402073:	0f b6 05 13 19 00 00 	movzx  eax,BYTE PTR [rip+0x1913]        # 40398d <MAGIC_VALUE_FILE_ENTRY_LIST+0x1>
  40207a:	38 c2                	cmp    dl,al
  40207c:	75 5a                	jne    4020d8 <extractFileFromArchiv+0xeb>
  40207e:	0f b6 55 82          	movzx  edx,BYTE PTR [rbp-0x7e]
  402082:	0f b6 05 05 19 00 00 	movzx  eax,BYTE PTR [rip+0x1905]        # 40398e <MAGIC_VALUE_FILE_ENTRY_LIST+0x2>
  402089:	38 c2                	cmp    dl,al
  40208b:	75 4b                	jne    4020d8 <extractFileFromArchiv+0xeb>
  40208d:	0f b6 55 83          	movzx  edx,BYTE PTR [rbp-0x7d]
  402091:	0f b6 05 f7 18 00 00 	movzx  eax,BYTE PTR [rip+0x18f7]        # 40398f <MAGIC_VALUE_FILE_ENTRY_LIST+0x3>
  402098:	38 c2                	cmp    dl,al
  40209a:	75 3c                	jne    4020d8 <extractFileFromArchiv+0xeb>
  40209c:	0f b6 55 84          	movzx  edx,BYTE PTR [rbp-0x7c]
  4020a0:	0f b6 05 e9 18 00 00 	movzx  eax,BYTE PTR [rip+0x18e9]        # 403990 <MAGIC_VALUE_FILE_ENTRY_LIST+0x4>
  4020a7:	38 c2                	cmp    dl,al
  4020a9:	75 2d                	jne    4020d8 <extractFileFromArchiv+0xeb>
  4020ab:	0f b6 55 85          	movzx  edx,BYTE PTR [rbp-0x7b]
  4020af:	0f b6 05 db 18 00 00 	movzx  eax,BYTE PTR [rip+0x18db]        # 403991 <MAGIC_VALUE_FILE_ENTRY_LIST+0x5>
  4020b6:	38 c2                	cmp    dl,al
  4020b8:	75 1e                	jne    4020d8 <extractFileFromArchiv+0xeb>
  4020ba:	0f b6 55 86          	movzx  edx,BYTE PTR [rbp-0x7a]
  4020be:	0f b6 05 cd 18 00 00 	movzx  eax,BYTE PTR [rip+0x18cd]        # 403992 <MAGIC_VALUE_FILE_ENTRY_LIST+0x6>
  4020c5:	38 c2                	cmp    dl,al
  4020c7:	75 0f                	jne    4020d8 <extractFileFromArchiv+0xeb>
  4020c9:	0f b6 55 87          	movzx  edx,BYTE PTR [rbp-0x79]
  4020cd:	0f b6 05 bf 18 00 00 	movzx  eax,BYTE PTR [rip+0x18bf]        # 403993 <MAGIC_VALUE_FILE_ENTRY_LIST+0x7>
  4020d4:	38 c2                	cmp    dl,al
  4020d6:	74 14                	je     4020ec <extractFileFromArchiv+0xff>
  4020d8:	bf b8 39 40 00       	mov    edi,0x4039b8
  4020dd:	e8 ae ea ff ff       	call   400b90 <puts@plt>
  4020e2:	bf 01 00 00 00       	mov    edi,0x1
  4020e7:	e8 c4 ea ff ff       	call   400bb0 <exit@plt>
  4020ec:	48 8b 95 78 ff ff ff 	mov    rdx,QWORD PTR [rbp-0x88]
  4020f3:	48 8d 45 80          	lea    rax,[rbp-0x80]
  4020f7:	48 89 d1             	mov    rcx,rdx
  4020fa:	ba 01 00 00 00       	mov    edx,0x1
  4020ff:	be 08 00 00 00       	mov    esi,0x8
  402104:	48 89 c7             	mov    rdi,rax
  402107:	e8 54 eb ff ff       	call   400c60 <fread@plt>
  40210c:	48 8d 45 80          	lea    rax,[rbp-0x80]
  402110:	be 08 00 00 00       	mov    esi,0x8
  402115:	48 89 c7             	mov    rdi,rax
  402118:	e8 ef ec ff ff       	call   400e0c <sanitizeFilename>
  40211d:	48 c7 45 f8 00 00 00 	mov    QWORD PTR [rbp-0x8],0x0
  402124:	00 
  402125:	c7 45 e4 00 00 00 00 	mov    DWORD PTR [rbp-0x1c],0x0
  40212c:	eb 2e                	jmp    40215c <extractFileFromArchiv+0x16f>
  40212e:	48 8b 45 f8          	mov    rax,QWORD PTR [rbp-0x8]
  402132:	48 89 c2             	mov    rdx,rax
  402135:	48 c1 e2 08          	shl    rdx,0x8
  402139:	b8 07 00 00 00       	mov    eax,0x7
  40213e:	2b 45 e4             	sub    eax,DWORD PTR [rbp-0x1c]
  402141:	48 98                	cdqe   
  402143:	0f b6 44 05 80       	movzx  eax,BYTE PTR [rbp+rax*1-0x80]
  402148:	48 0f be c0          	movsx  rax,al
  40214c:	25 ff 00 00 00       	and    eax,0xff
  402151:	48 09 d0             	or     rax,rdx
  402154:	48 89 45 f8          	mov    QWORD PTR [rbp-0x8],rax
  402158:	83 45 e4 01          	add    DWORD PTR [rbp-0x1c],0x1
  40215c:	83 7d e4 07          	cmp    DWORD PTR [rbp-0x1c],0x7
  402160:	7e cc                	jle    40212e <extractFileFromArchiv+0x141>
  402162:	c7 45 e0 00 00 00 00 	mov    DWORD PTR [rbp-0x20],0x0
  402169:	e9 af 00 00 00       	jmp    40221d <extractFileFromArchiv+0x230>
  40216e:	48 8b 45 f0          	mov    rax,QWORD PTR [rbp-0x10]
  402172:	48 c1 e0 04          	shl    rax,0x4
  402176:	48 89 c2             	mov    rdx,rax
  402179:	48 c1 e2 06          	shl    rdx,0x6
  40217d:	48 01 d0             	add    rax,rdx
  402180:	48 8d 50 50          	lea    rdx,[rax+0x50]
  402184:	8b 45 e0             	mov    eax,DWORD PTR [rbp-0x20]
  402187:	c1 e0 07             	shl    eax,0x7
  40218a:	48 98                	cdqe   
  40218c:	48 8d 0c 02          	lea    rcx,[rdx+rax*1]
  402190:	48 8b 85 78 ff ff ff 	mov    rax,QWORD PTR [rbp-0x88]
  402197:	ba 00 00 00 00       	mov    edx,0x0
  40219c:	48 89 ce             	mov    rsi,rcx
  40219f:	48 89 c7             	mov    rdi,rax
  4021a2:	e8 f9 e9 ff ff       	call   400ba0 <fseek@plt>
  4021a7:	48 8b 95 78 ff ff ff 	mov    rdx,QWORD PTR [rbp-0x88]
  4021ae:	48 8d 45 80          	lea    rax,[rbp-0x80]
  4021b2:	48 89 d1             	mov    rcx,rdx
  4021b5:	ba 01 00 00 00       	mov    edx,0x1
  4021ba:	be 60 00 00 00       	mov    esi,0x60
  4021bf:	48 89 c7             	mov    rdi,rax
  4021c2:	e8 99 ea ff ff       	call   400c60 <fread@plt>
  4021c7:	48 8d 45 80          	lea    rax,[rbp-0x80]
  4021cb:	be 60 00 00 00       	mov    esi,0x60
  4021d0:	48 89 c7             	mov    rdi,rax
  4021d3:	e8 34 ec ff ff       	call   400e0c <sanitizeFilename>
  4021d8:	48 8b 95 70 ff ff ff 	mov    rdx,QWORD PTR [rbp-0x90]
  4021df:	48 8d 45 80          	lea    rax,[rbp-0x80]
  4021e3:	48 89 d6             	mov    rsi,rdx
  4021e6:	48 89 c7             	mov    rdi,rax
  4021e9:	e8 82 ea ff ff       	call   400c70 <strcmp@plt>
  4021ee:	85 c0                	test   eax,eax
  4021f0:	75 27                	jne    402219 <extractFileFromArchiv+0x22c>
  4021f2:	48 8b 45 f0          	mov    rax,QWORD PTR [rbp-0x10]
  4021f6:	48 c1 e0 04          	shl    rax,0x4
  4021fa:	48 89 c2             	mov    rdx,rax
  4021fd:	48 c1 e2 06          	shl    rdx,0x6
  402201:	48 01 d0             	add    rax,rdx
  402204:	48 8d 50 30          	lea    rdx,[rax+0x30]
  402208:	8b 45 e0             	mov    eax,DWORD PTR [rbp-0x20]
  40220b:	c1 e0 07             	shl    eax,0x7
  40220e:	48 98                	cdqe   
  402210:	48 01 d0             	add    rax,rdx
  402213:	48 89 45 e8          	mov    QWORD PTR [rbp-0x18],rax
  402217:	eb 0e                	jmp    402227 <extractFileFromArchiv+0x23a>
  402219:	83 45 e0 01          	add    DWORD PTR [rbp-0x20],0x1
  40221d:	83 7d e0 07          	cmp    DWORD PTR [rbp-0x20],0x7
  402221:	0f 8e 47 ff ff ff    	jle    40216e <extractFileFromArchiv+0x181>
  402227:	48 83 7d f8 00       	cmp    QWORD PTR [rbp-0x8],0x0
  40222c:	74 3a                	je     402268 <extractFileFromArchiv+0x27b>
  40222e:	48 8b 45 f8          	mov    rax,QWORD PTR [rbp-0x8]
  402232:	48 c1 e0 04          	shl    rax,0x4
  402236:	48 89 c2             	mov    rdx,rax
  402239:	48 c1 e2 06          	shl    rdx,0x6
  40223d:	48 01 d0             	add    rax,rdx
  402240:	48 8d 48 20          	lea    rcx,[rax+0x20]
  402244:	48 8b 85 78 ff ff ff 	mov    rax,QWORD PTR [rbp-0x88]
  40224b:	ba 00 00 00 00       	mov    edx,0x0
  402250:	48 89 ce             	mov    rsi,rcx
  402253:	48 89 c7             	mov    rdi,rax
  402256:	e8 45 e9 ff ff       	call   400ba0 <fseek@plt>
  40225b:	48 8b 45 f8          	mov    rax,QWORD PTR [rbp-0x8]
  40225f:	48 89 45 f0          	mov    QWORD PTR [rbp-0x10],rax
  402263:	e9 c7 fd ff ff       	jmp    40202f <extractFileFromArchiv+0x42>
  402268:	90                   	nop
  402269:	48 83 7d e8 00       	cmp    QWORD PTR [rbp-0x18],0x0
  40226e:	75 07                	jne    402277 <extractFileFromArchiv+0x28a>
  402270:	b8 00 00 00 00       	mov    eax,0x0
  402275:	eb 04                	jmp    40227b <extractFileFromArchiv+0x28e>
  402277:	48 8b 45 e8          	mov    rax,QWORD PTR [rbp-0x18]
  40227b:	c9                   	leave  
  40227c:	c3                   	ret    

000000000040227d <listAllFilesInArchiv>:
  40227d:	55                   	push   rbp
  40227e:	48 89 e5             	mov    rbp,rsp
  402281:	48 83 ec 40          	sub    rsp,0x40
  402285:	48 89 7d c8          	mov    QWORD PTR [rbp-0x38],rdi
  402289:	48 89 75 c0          	mov    QWORD PTR [rbp-0x40],rsi
  40228d:	48 8b 4d c0          	mov    rcx,QWORD PTR [rbp-0x40]
  402291:	48 8b 45 c8          	mov    rax,QWORD PTR [rbp-0x38]
  402295:	ba 00 00 00 00       	mov    edx,0x0
  40229a:	48 89 ce             	mov    rsi,rcx
  40229d:	48 89 c7             	mov    rdi,rax
  4022a0:	e8 fb e8 ff ff       	call   400ba0 <fseek@plt>
  4022a5:	48 8b 55 c8          	mov    rdx,QWORD PTR [rbp-0x38]
  4022a9:	48 8d 45 d0          	lea    rax,[rbp-0x30]
  4022ad:	48 89 d1             	mov    rcx,rdx
  4022b0:	ba 01 00 00 00       	mov    edx,0x1
  4022b5:	be 08 00 00 00       	mov    esi,0x8
  4022ba:	48 89 c7             	mov    rdi,rax
  4022bd:	e8 9e e9 ff ff       	call   400c60 <fread@plt>
  4022c2:	48 8d 45 d0          	lea    rax,[rbp-0x30]
  4022c6:	be 08 00 00 00       	mov    esi,0x8
  4022cb:	48 89 c7             	mov    rdi,rax
  4022ce:	e8 39 eb ff ff       	call   400e0c <sanitizeFilename>
  4022d3:	48 c7 45 f8 00 00 00 	mov    QWORD PTR [rbp-0x8],0x0
  4022da:	00 
  4022db:	c7 45 ec 00 00 00 00 	mov    DWORD PTR [rbp-0x14],0x0
  4022e2:	eb 2e                	jmp    402312 <listAllFilesInArchiv+0x95>
  4022e4:	48 8b 45 f8          	mov    rax,QWORD PTR [rbp-0x8]
  4022e8:	48 89 c2             	mov    rdx,rax
  4022eb:	48 c1 e2 08          	shl    rdx,0x8
  4022ef:	b8 07 00 00 00       	mov    eax,0x7
  4022f4:	2b 45 ec             	sub    eax,DWORD PTR [rbp-0x14]
  4022f7:	48 98                	cdqe   
  4022f9:	0f b6 44 05 d0       	movzx  eax,BYTE PTR [rbp+rax*1-0x30]
  4022fe:	48 0f be c0          	movsx  rax,al
  402302:	25 ff 00 00 00       	and    eax,0xff
  402307:	48 09 d0             	or     rax,rdx
  40230a:	48 89 45 f8          	mov    QWORD PTR [rbp-0x8],rax
  40230e:	83 45 ec 01          	add    DWORD PTR [rbp-0x14],0x1
  402312:	83 7d ec 07          	cmp    DWORD PTR [rbp-0x14],0x7
  402316:	7e cc                	jle    4022e4 <listAllFilesInArchiv+0x67>
  402318:	48 8b 55 c8          	mov    rdx,QWORD PTR [rbp-0x38]
  40231c:	48 8d 45 d0          	lea    rax,[rbp-0x30]
  402320:	48 89 d1             	mov    rcx,rdx
  402323:	ba 01 00 00 00       	mov    edx,0x1
  402328:	be 08 00 00 00       	mov    esi,0x8
  40232d:	48 89 c7             	mov    rdi,rax
  402330:	e8 2b e9 ff ff       	call   400c60 <fread@plt>
  402335:	48 8d 45 d0          	lea    rax,[rbp-0x30]
  402339:	be 08 00 00 00       	mov    esi,0x8
  40233e:	48 89 c7             	mov    rdi,rax
  402341:	e8 c6 ea ff ff       	call   400e0c <sanitizeFilename>
  402346:	48 c7 45 f0 00 00 00 	mov    QWORD PTR [rbp-0x10],0x0
  40234d:	00 
  40234e:	c7 45 ec 00 00 00 00 	mov    DWORD PTR [rbp-0x14],0x0
  402355:	eb 2e                	jmp    402385 <listAllFilesInArchiv+0x108>
  402357:	48 8b 45 f0          	mov    rax,QWORD PTR [rbp-0x10]
  40235b:	48 89 c2             	mov    rdx,rax
  40235e:	48 c1 e2 08          	shl    rdx,0x8
  402362:	b8 07 00 00 00       	mov    eax,0x7
  402367:	2b 45 ec             	sub    eax,DWORD PTR [rbp-0x14]
  40236a:	48 98                	cdqe   
  40236c:	0f b6 44 05 d0       	movzx  eax,BYTE PTR [rbp+rax*1-0x30]
  402371:	48 0f be c0          	movsx  rax,al
  402375:	25 ff 00 00 00       	and    eax,0xff
  40237a:	48 09 d0             	or     rax,rdx
  40237d:	48 89 45 f0          	mov    QWORD PTR [rbp-0x10],rax
  402381:	83 45 ec 01          	add    DWORD PTR [rbp-0x14],0x1
  402385:	83 7d ec 07          	cmp    DWORD PTR [rbp-0x14],0x7
  402389:	7e cc                	jle    402357 <listAllFilesInArchiv+0xda>
  40238b:	48 8b 4d c0          	mov    rcx,QWORD PTR [rbp-0x40]
  40238f:	48 8b 45 c8          	mov    rax,QWORD PTR [rbp-0x38]
  402393:	ba 00 00 00 00       	mov    edx,0x0
  402398:	48 89 ce             	mov    rsi,rcx
  40239b:	48 89 c7             	mov    rdi,rax
  40239e:	e8 fd e7 ff ff       	call   400ba0 <fseek@plt>
  4023a3:	c7 45 e8 00 00 00 00 	mov    DWORD PTR [rbp-0x18],0x0
  4023aa:	eb 10                	jmp    4023bc <listAllFilesInArchiv+0x13f>
  4023ac:	8b 45 e8             	mov    eax,DWORD PTR [rbp-0x18]
  4023af:	48 98                	cdqe   
  4023b1:	c6 80 c0 45 60 00 00 	mov    BYTE PTR [rax+0x6045c0],0x0
  4023b8:	83 45 e8 01          	add    DWORD PTR [rbp-0x18],0x1
  4023bc:	83 7d e8 07          	cmp    DWORD PTR [rbp-0x18],0x7
  4023c0:	7e ea                	jle    4023ac <listAllFilesInArchiv+0x12f>
  4023c2:	be 08 00 00 00       	mov    esi,0x8
  4023c7:	bf c0 45 60 00       	mov    edi,0x6045c0
  4023cc:	e8 3b ea ff ff       	call   400e0c <sanitizeFilename>
  4023d1:	48 8b 45 c8          	mov    rax,QWORD PTR [rbp-0x38]
  4023d5:	48 89 c1             	mov    rcx,rax
  4023d8:	ba 01 00 00 00       	mov    edx,0x1
  4023dd:	be 08 00 00 00       	mov    esi,0x8
  4023e2:	bf c0 45 60 00       	mov    edi,0x6045c0
  4023e7:	e8 f4 e8 ff ff       	call   400ce0 <fwrite@plt>
  4023ec:	48 8b 45 c8          	mov    rax,QWORD PTR [rbp-0x38]
  4023f0:	48 89 c1             	mov    rcx,rax
  4023f3:	ba 01 00 00 00       	mov    edx,0x1
  4023f8:	be 08 00 00 00       	mov    esi,0x8
  4023fd:	bf c0 45 60 00       	mov    edi,0x6045c0
  402402:	e8 d9 e8 ff ff       	call   400ce0 <fwrite@plt>
  402407:	c7 45 e8 00 00 00 00 	mov    DWORD PTR [rbp-0x18],0x0
  40240e:	eb 10                	jmp    402420 <listAllFilesInArchiv+0x1a3>
  402410:	8b 45 e8             	mov    eax,DWORD PTR [rbp-0x18]
  402413:	48 98                	cdqe   
  402415:	c6 80 c0 45 60 00 00 	mov    BYTE PTR [rax+0x6045c0],0x0
  40241c:	83 45 e8 01          	add    DWORD PTR [rbp-0x18],0x1
  402420:	83 7d e8 0f          	cmp    DWORD PTR [rbp-0x18],0xf
  402424:	7e ea                	jle    402410 <listAllFilesInArchiv+0x193>
  402426:	be 10 00 00 00       	mov    esi,0x10
  40242b:	bf c0 45 60 00       	mov    edi,0x6045c0
  402430:	e8 d7 e9 ff ff       	call   400e0c <sanitizeFilename>
  402435:	48 8b 45 c8          	mov    rax,QWORD PTR [rbp-0x38]
  402439:	48 89 c1             	mov    rcx,rax
  40243c:	ba 01 00 00 00       	mov    edx,0x1
  402441:	be 10 00 00 00       	mov    esi,0x10
  402446:	bf c0 45 60 00       	mov    edi,0x6045c0
  40244b:	e8 90 e8 ff ff       	call   400ce0 <fwrite@plt>
  402450:	c7 45 e8 00 00 00 00 	mov    DWORD PTR [rbp-0x18],0x0
  402457:	eb 10                	jmp    402469 <listAllFilesInArchiv+0x1ec>
  402459:	8b 45 e8             	mov    eax,DWORD PTR [rbp-0x18]
  40245c:	48 98                	cdqe   
  40245e:	c6 80 c0 45 60 00 00 	mov    BYTE PTR [rax+0x6045c0],0x0
  402465:	83 45 e8 01          	add    DWORD PTR [rbp-0x18],0x1
  402469:	83 7d e8 5f          	cmp    DWORD PTR [rbp-0x18],0x5f
  40246d:	7e ea                	jle    402459 <listAllFilesInArchiv+0x1dc>
  40246f:	be 60 00 00 00       	mov    esi,0x60
  402474:	bf c0 45 60 00       	mov    edi,0x6045c0
  402479:	e8 8e e9 ff ff       	call   400e0c <sanitizeFilename>
  40247e:	48 8b 45 c8          	mov    rax,QWORD PTR [rbp-0x38]
  402482:	48 89 c1             	mov    rcx,rax
  402485:	ba 01 00 00 00       	mov    edx,0x1
  40248a:	be 60 00 00 00       	mov    esi,0x60
  40248f:	bf c0 45 60 00       	mov    edi,0x6045c0
  402494:	e8 47 e8 ff ff       	call   400ce0 <fwrite@plt>
  402499:	c7 45 e8 00 00 00 00 	mov    DWORD PTR [rbp-0x18],0x0
  4024a0:	e9 12 01 00 00       	jmp    4025b7 <listAllFilesInArchiv+0x33a>
  4024a5:	48 8b 45 f8          	mov    rax,QWORD PTR [rbp-0x8]
  4024a9:	48 c1 e0 04          	shl    rax,0x4
  4024ad:	48 89 c2             	mov    rdx,rax
  4024b0:	48 c1 e2 06          	shl    rdx,0x6
  4024b4:	48 01 d0             	add    rax,rdx
  4024b7:	48 8d 48 20          	lea    rcx,[rax+0x20]
  4024bb:	48 8b 45 c8          	mov    rax,QWORD PTR [rbp-0x38]
  4024bf:	ba 00 00 00 00       	mov    edx,0x0
  4024c4:	48 89 ce             	mov    rsi,rcx
  4024c7:	48 89 c7             	mov    rdi,rax
  4024ca:	e8 d1 e6 ff ff       	call   400ba0 <fseek@plt>
  4024cf:	48 8b 45 c8          	mov    rax,QWORD PTR [rbp-0x38]
  4024d3:	48 89 c7             	mov    rdi,rax
  4024d6:	e8 95 e6 ff ff       	call   400b70 <ftell@plt>
  4024db:	48 89 45 d8          	mov    QWORD PTR [rbp-0x28],rax
  4024df:	48 8b 55 c8          	mov    rdx,QWORD PTR [rbp-0x38]
  4024e3:	48 8d 45 d0          	lea    rax,[rbp-0x30]
  4024e7:	48 89 d1             	mov    rcx,rdx
  4024ea:	ba 01 00 00 00       	mov    edx,0x1
  4024ef:	be 08 00 00 00       	mov    esi,0x8
  4024f4:	48 89 c7             	mov    rdi,rax
  4024f7:	e8 64 e7 ff ff       	call   400c60 <fread@plt>
  4024fc:	48 8d 45 d0          	lea    rax,[rbp-0x30]
  402500:	be 08 00 00 00       	mov    esi,0x8
  402505:	48 89 c7             	mov    rdi,rax
  402508:	e8 ff e8 ff ff       	call   400e0c <sanitizeFilename>
  40250d:	48 c7 45 f8 00 00 00 	mov    QWORD PTR [rbp-0x8],0x0
  402514:	00 
  402515:	c7 45 ec 00 00 00 00 	mov    DWORD PTR [rbp-0x14],0x0
  40251c:	eb 2e                	jmp    40254c <listAllFilesInArchiv+0x2cf>
  40251e:	48 8b 45 f8          	mov    rax,QWORD PTR [rbp-0x8]
  402522:	48 89 c2             	mov    rdx,rax
  402525:	48 c1 e2 08          	shl    rdx,0x8
  402529:	b8 07 00 00 00       	mov    eax,0x7
  40252e:	2b 45 ec             	sub    eax,DWORD PTR [rbp-0x14]
  402531:	48 98                	cdqe   
  402533:	0f b6 44 05 d0       	movzx  eax,BYTE PTR [rbp+rax*1-0x30]
  402538:	48 0f be c0          	movsx  rax,al
  40253c:	25 ff 00 00 00       	and    eax,0xff
  402541:	48 09 d0             	or     rax,rdx
  402544:	48 89 45 f8          	mov    QWORD PTR [rbp-0x8],rax
  402548:	83 45 ec 01          	add    DWORD PTR [rbp-0x14],0x1
  40254c:	83 7d ec 07          	cmp    DWORD PTR [rbp-0x14],0x7
  402550:	7e cc                	jle    40251e <listAllFilesInArchiv+0x2a1>
  402552:	48 8b 4d d8          	mov    rcx,QWORD PTR [rbp-0x28]
  402556:	48 8b 45 c8          	mov    rax,QWORD PTR [rbp-0x38]
  40255a:	ba 00 00 00 00       	mov    edx,0x0
  40255f:	48 89 ce             	mov    rsi,rcx
  402562:	48 89 c7             	mov    rdi,rax
  402565:	e8 36 e6 ff ff       	call   400ba0 <fseek@plt>
  40256a:	c7 45 e4 00 00 00 00 	mov    DWORD PTR [rbp-0x1c],0x0
  402571:	eb 10                	jmp    402583 <listAllFilesInArchiv+0x306>
  402573:	8b 45 e4             	mov    eax,DWORD PTR [rbp-0x1c]
  402576:	48 98                	cdqe   
  402578:	c6 80 c0 45 60 00 00 	mov    BYTE PTR [rax+0x6045c0],0x0
  40257f:	83 45 e4 01          	add    DWORD PTR [rbp-0x1c],0x1
  402583:	83 7d e4 07          	cmp    DWORD PTR [rbp-0x1c],0x7
  402587:	7e ea                	jle    402573 <listAllFilesInArchiv+0x2f6>
  402589:	be 08 00 00 00       	mov    esi,0x8
  40258e:	bf c0 45 60 00       	mov    edi,0x6045c0
  402593:	e8 74 e8 ff ff       	call   400e0c <sanitizeFilename>
  402598:	48 8b 45 c8          	mov    rax,QWORD PTR [rbp-0x38]
  40259c:	48 89 c1             	mov    rcx,rax
  40259f:	ba 01 00 00 00       	mov    edx,0x1
  4025a4:	be 08 00 00 00       	mov    esi,0x8
  4025a9:	bf c0 45 60 00       	mov    edi,0x6045c0
  4025ae:	e8 2d e7 ff ff       	call   400ce0 <fwrite@plt>
  4025b3:	83 45 e8 01          	add    DWORD PTR [rbp-0x18],0x1
  4025b7:	8b 45 e8             	mov    eax,DWORD PTR [rbp-0x18]
  4025ba:	48 98                	cdqe   
  4025bc:	48 3b 45 f0          	cmp    rax,QWORD PTR [rbp-0x10]
  4025c0:	0f 8c df fe ff ff    	jl     4024a5 <listAllFilesInArchiv+0x228>
  4025c6:	c9                   	leave  
  4025c7:	c3                   	ret    

00000000004025c8 <deleteFileFromArchiv>:
  4025c8:	55                   	push   rbp
  4025c9:	48 89 e5             	mov    rbp,rsp
  4025cc:	48 81 ec c0 00 00 00 	sub    rsp,0xc0
  4025d3:	48 89 bd 58 ff ff ff 	mov    QWORD PTR [rbp-0xa8],rdi
  4025da:	48 89 b5 50 ff ff ff 	mov    QWORD PTR [rbp-0xb0],rsi
  4025e1:	48 89 95 48 ff ff ff 	mov    QWORD PTR [rbp-0xb8],rdx
  4025e8:	48 89 8d 40 ff ff ff 	mov    QWORD PTR [rbp-0xc0],rcx
  4025ef:	48 8d 85 60 ff ff ff 	lea    rax,[rbp-0xa0]
  4025f6:	48 89 c7             	mov    rdi,rax
  4025f9:	e8 52 e5 ff ff       	call   400b50 <MD5_Init@plt>
  4025fe:	48 8b 8d 40 ff ff ff 	mov    rcx,QWORD PTR [rbp-0xc0]
  402605:	48 8b 85 58 ff ff ff 	mov    rax,QWORD PTR [rbp-0xa8]
  40260c:	ba 00 00 00 00       	mov    edx,0x0
  402611:	48 89 ce             	mov    rsi,rcx
  402614:	48 89 c7             	mov    rdi,rax
  402617:	e8 84 e5 ff ff       	call   400ba0 <fseek@plt>
  40261c:	48 8b 95 58 ff ff ff 	mov    rdx,QWORD PTR [rbp-0xa8]
  402623:	48 8d 45 c0          	lea    rax,[rbp-0x40]
  402627:	48 89 d1             	mov    rcx,rdx
  40262a:	ba 01 00 00 00       	mov    edx,0x1
  40262f:	be 08 00 00 00       	mov    esi,0x8
  402634:	48 89 c7             	mov    rdi,rax
  402637:	e8 24 e6 ff ff       	call   400c60 <fread@plt>
  40263c:	48 8d 45 c0          	lea    rax,[rbp-0x40]
  402640:	be 08 00 00 00       	mov    esi,0x8
  402645:	48 89 c7             	mov    rdi,rax
  402648:	e8 bf e7 ff ff       	call   400e0c <sanitizeFilename>
  40264d:	48 c7 45 f8 00 00 00 	mov    QWORD PTR [rbp-0x8],0x0
  402654:	00 
  402655:	c7 45 ec 00 00 00 00 	mov    DWORD PTR [rbp-0x14],0x0
  40265c:	eb 2e                	jmp    40268c <deleteFileFromArchiv+0xc4>
  40265e:	48 8b 45 f8          	mov    rax,QWORD PTR [rbp-0x8]
  402662:	48 89 c2             	mov    rdx,rax
  402665:	48 c1 e2 08          	shl    rdx,0x8
  402669:	b8 07 00 00 00       	mov    eax,0x7
  40266e:	2b 45 ec             	sub    eax,DWORD PTR [rbp-0x14]
  402671:	48 98                	cdqe   
  402673:	0f b6 44 05 c0       	movzx  eax,BYTE PTR [rbp+rax*1-0x40]
  402678:	48 0f be c0          	movsx  rax,al
  40267c:	25 ff 00 00 00       	and    eax,0xff
  402681:	48 09 d0             	or     rax,rdx
  402684:	48 89 45 f8          	mov    QWORD PTR [rbp-0x8],rax
  402688:	83 45 ec 01          	add    DWORD PTR [rbp-0x14],0x1
  40268c:	83 7d ec 07          	cmp    DWORD PTR [rbp-0x14],0x7
  402690:	7e cc                	jle    40265e <deleteFileFromArchiv+0x96>
  402692:	48 8b 95 58 ff ff ff 	mov    rdx,QWORD PTR [rbp-0xa8]
  402699:	48 8d 45 c0          	lea    rax,[rbp-0x40]
  40269d:	48 89 d1             	mov    rcx,rdx
  4026a0:	ba 01 00 00 00       	mov    edx,0x1
  4026a5:	be 08 00 00 00       	mov    esi,0x8
  4026aa:	48 89 c7             	mov    rdi,rax
  4026ad:	e8 ae e5 ff ff       	call   400c60 <fread@plt>
  4026b2:	48 8d 45 c0          	lea    rax,[rbp-0x40]
  4026b6:	be 08 00 00 00       	mov    esi,0x8
  4026bb:	48 89 c7             	mov    rdi,rax
  4026be:	e8 49 e7 ff ff       	call   400e0c <sanitizeFilename>
  4026c3:	48 c7 45 f0 00 00 00 	mov    QWORD PTR [rbp-0x10],0x0
  4026ca:	00 
  4026cb:	c7 45 ec 00 00 00 00 	mov    DWORD PTR [rbp-0x14],0x0
  4026d2:	eb 2e                	jmp    402702 <deleteFileFromArchiv+0x13a>
  4026d4:	48 8b 45 f0          	mov    rax,QWORD PTR [rbp-0x10]
  4026d8:	48 89 c2             	mov    rdx,rax
  4026db:	48 c1 e2 08          	shl    rdx,0x8
  4026df:	b8 07 00 00 00       	mov    eax,0x7
  4026e4:	2b 45 ec             	sub    eax,DWORD PTR [rbp-0x14]
  4026e7:	48 98                	cdqe   
  4026e9:	0f b6 44 05 c0       	movzx  eax,BYTE PTR [rbp+rax*1-0x40]
  4026ee:	48 0f be c0          	movsx  rax,al
  4026f2:	25 ff 00 00 00       	and    eax,0xff
  4026f7:	48 09 d0             	or     rax,rdx
  4026fa:	48 89 45 f0          	mov    QWORD PTR [rbp-0x10],rax
  4026fe:	83 45 ec 01          	add    DWORD PTR [rbp-0x14],0x1
  402702:	83 7d ec 07          	cmp    DWORD PTR [rbp-0x14],0x7
  402706:	7e cc                	jle    4026d4 <deleteFileFromArchiv+0x10c>
  402708:	bf 94 39 40 00       	mov    edi,0x403994
  40270d:	e8 7e e4 ff ff       	call   400b90 <puts@plt>
  402712:	48 8b 4d f0          	mov    rcx,QWORD PTR [rbp-0x10]
  402716:	48 ba 72 1c c7 71 1c 	movabs rdx,0x1c71c71c71c71c72
  40271d:	c7 71 1c 
  402720:	48 89 c8             	mov    rax,rcx
  402723:	48 f7 ea             	imul   rdx
  402726:	48 89 c8             	mov    rax,rcx
  402729:	48 c1 f8 3f          	sar    rax,0x3f
  40272d:	48 89 d1             	mov    rcx,rdx
  402730:	48 29 c1             	sub    rcx,rax
  402733:	48 89 c8             	mov    rax,rcx
  402736:	48 89 45 d8          	mov    QWORD PTR [rbp-0x28],rax
  40273a:	c7 45 e8 0a 00 00 00 	mov    DWORD PTR [rbp-0x18],0xa
  402741:	bf 9f 39 40 00       	mov    edi,0x40399f
  402746:	b8 00 00 00 00       	mov    eax,0x0
  40274b:	e8 10 e4 ff ff       	call   400b60 <printf@plt>
  402750:	48 8b 05 29 1e 20 00 	mov    rax,QWORD PTR [rip+0x201e29]        # 604580 <stdout@@GLIBC_2.2.5>
  402757:	48 89 c7             	mov    rdi,rax
  40275a:	e8 91 e5 ff ff       	call   400cf0 <fflush@plt>
  40275f:	c7 45 e4 00 00 00 00 	mov    DWORD PTR [rbp-0x1c],0x0
  402766:	e9 33 02 00 00       	jmp    40299e <deleteFileFromArchiv+0x3d6>
  40276b:	48 8b 45 f8          	mov    rax,QWORD PTR [rbp-0x8]
  40276f:	48 c1 e0 04          	shl    rax,0x4
  402773:	48 89 c2             	mov    rdx,rax
  402776:	48 c1 e2 06          	shl    rdx,0x6
  40277a:	48 01 d0             	add    rax,rdx
  40277d:	48 8d 48 20          	lea    rcx,[rax+0x20]
  402781:	48 8b 85 58 ff ff ff 	mov    rax,QWORD PTR [rbp-0xa8]
  402788:	ba 00 00 00 00       	mov    edx,0x0
  40278d:	48 89 ce             	mov    rsi,rcx
  402790:	48 89 c7             	mov    rdi,rax
  402793:	e8 08 e4 ff ff       	call   400ba0 <fseek@plt>
  402798:	48 8b 85 58 ff ff ff 	mov    rax,QWORD PTR [rbp-0xa8]
  40279f:	48 89 c7             	mov    rdi,rax
  4027a2:	e8 c9 e3 ff ff       	call   400b70 <ftell@plt>
  4027a7:	48 89 45 d0          	mov    QWORD PTR [rbp-0x30],rax
  4027ab:	48 8b 95 58 ff ff ff 	mov    rdx,QWORD PTR [rbp-0xa8]
  4027b2:	48 8d 45 c0          	lea    rax,[rbp-0x40]
  4027b6:	48 89 d1             	mov    rcx,rdx
  4027b9:	ba 01 00 00 00       	mov    edx,0x1
  4027be:	be 08 00 00 00       	mov    esi,0x8
  4027c3:	48 89 c7             	mov    rdi,rax
  4027c6:	e8 95 e4 ff ff       	call   400c60 <fread@plt>
  4027cb:	48 8d 45 c0          	lea    rax,[rbp-0x40]
  4027cf:	be 08 00 00 00       	mov    esi,0x8
  4027d4:	48 89 c7             	mov    rdi,rax
  4027d7:	e8 30 e6 ff ff       	call   400e0c <sanitizeFilename>
  4027dc:	48 c7 45 f8 00 00 00 	mov    QWORD PTR [rbp-0x8],0x0
  4027e3:	00 
  4027e4:	c7 45 ec 00 00 00 00 	mov    DWORD PTR [rbp-0x14],0x0
  4027eb:	eb 2e                	jmp    40281b <deleteFileFromArchiv+0x253>
  4027ed:	48 8b 45 f8          	mov    rax,QWORD PTR [rbp-0x8]
  4027f1:	48 89 c2             	mov    rdx,rax
  4027f4:	48 c1 e2 08          	shl    rdx,0x8
  4027f8:	b8 07 00 00 00       	mov    eax,0x7
  4027fd:	2b 45 ec             	sub    eax,DWORD PTR [rbp-0x14]
  402800:	48 98                	cdqe   
  402802:	0f b6 44 05 c0       	movzx  eax,BYTE PTR [rbp+rax*1-0x40]
  402807:	48 0f be c0          	movsx  rax,al
  40280b:	25 ff 00 00 00       	and    eax,0xff
  402810:	48 09 d0             	or     rax,rdx
  402813:	48 89 45 f8          	mov    QWORD PTR [rbp-0x8],rax
  402817:	83 45 ec 01          	add    DWORD PTR [rbp-0x14],0x1
  40281b:	83 7d ec 07          	cmp    DWORD PTR [rbp-0x14],0x7
  40281f:	7e cc                	jle    4027ed <deleteFileFromArchiv+0x225>
  402821:	8b 45 e4             	mov    eax,DWORD PTR [rbp-0x1c]
  402824:	83 c0 01             	add    eax,0x1
  402827:	48 98                	cdqe   
  402829:	48 3b 45 f0          	cmp    rax,QWORD PTR [rbp-0x10]
  40282d:	0f 85 94 00 00 00    	jne    4028c7 <deleteFileFromArchiv+0x2ff>
  402833:	48 8b 55 f0          	mov    rdx,QWORD PTR [rbp-0x10]
  402837:	b8 00 00 00 00       	mov    eax,0x0
  40283c:	48 29 d0             	sub    rax,rdx
  40283f:	48 c1 e0 07          	shl    rax,0x7
  402843:	48 29 d0             	sub    rax,rdx
  402846:	48 c1 e0 03          	shl    rax,0x3
  40284a:	48 8d 90 08 04 00 00 	lea    rdx,[rax+0x408]
  402851:	48 8b 45 f8          	mov    rax,QWORD PTR [rbp-0x8]
  402855:	48 01 d0             	add    rax,rdx
  402858:	48 89 45 c8          	mov    QWORD PTR [rbp-0x38],rax
  40285c:	48 8b 45 c8          	mov    rax,QWORD PTR [rbp-0x38]
  402860:	48 8b 95 58 ff ff ff 	mov    rdx,QWORD PTR [rbp-0xa8]
  402867:	48 89 d1             	mov    rcx,rdx
  40286a:	48 89 c2             	mov    rdx,rax
  40286d:	be 01 00 00 00       	mov    esi,0x1
  402872:	bf c0 45 60 00       	mov    edi,0x6045c0
  402877:	e8 e4 e3 ff ff       	call   400c60 <fread@plt>
  40287c:	48 8b 45 c8          	mov    rax,QWORD PTR [rbp-0x38]
  402880:	48 89 c6             	mov    rsi,rax
  402883:	bf c0 45 60 00       	mov    edi,0x6045c0
  402888:	e8 7f e5 ff ff       	call   400e0c <sanitizeFilename>
  40288d:	48 8b 45 c8          	mov    rax,QWORD PTR [rbp-0x38]
  402891:	48 8b 95 50 ff ff ff 	mov    rdx,QWORD PTR [rbp-0xb0]
  402898:	48 89 d1             	mov    rcx,rdx
  40289b:	48 89 c2             	mov    rdx,rax
  40289e:	be 01 00 00 00       	mov    esi,0x1
  4028a3:	bf c0 45 60 00       	mov    edi,0x6045c0
  4028a8:	e8 33 e4 ff ff       	call   400ce0 <fwrite@plt>
  4028ad:	48 8b 55 c8          	mov    rdx,QWORD PTR [rbp-0x38]
  4028b1:	48 8d 85 60 ff ff ff 	lea    rax,[rbp-0xa0]
  4028b8:	be c0 45 60 00       	mov    esi,0x6045c0
  4028bd:	48 89 c7             	mov    rdi,rax
  4028c0:	e8 bb e2 ff ff       	call   400b80 <MD5_Update@plt>
  4028c5:	eb 64                	jmp    40292b <deleteFileFromArchiv+0x363>
  4028c7:	48 8b 85 58 ff ff ff 	mov    rax,QWORD PTR [rbp-0xa8]
  4028ce:	48 89 c1             	mov    rcx,rax
  4028d1:	ba 08 04 00 00       	mov    edx,0x408
  4028d6:	be 01 00 00 00       	mov    esi,0x1
  4028db:	bf c0 45 60 00       	mov    edi,0x6045c0
  4028e0:	e8 7b e3 ff ff       	call   400c60 <fread@plt>
  4028e5:	be 08 04 00 00       	mov    esi,0x408
  4028ea:	bf c0 45 60 00       	mov    edi,0x6045c0
  4028ef:	e8 18 e5 ff ff       	call   400e0c <sanitizeFilename>
  4028f4:	48 8b 85 50 ff ff ff 	mov    rax,QWORD PTR [rbp-0xb0]
  4028fb:	48 89 c1             	mov    rcx,rax
  4028fe:	ba 08 04 00 00       	mov    edx,0x408
  402903:	be 01 00 00 00       	mov    esi,0x1
  402908:	bf c0 45 60 00       	mov    edi,0x6045c0
  40290d:	e8 ce e3 ff ff       	call   400ce0 <fwrite@plt>
  402912:	48 8d 85 60 ff ff ff 	lea    rax,[rbp-0xa0]
  402919:	ba 08 04 00 00       	mov    edx,0x408
  40291e:	be c0 45 60 00       	mov    esi,0x6045c0
  402923:	48 89 c7             	mov    rdi,rax
  402926:	e8 55 e2 ff ff       	call   400b80 <MD5_Update@plt>
  40292b:	48 83 7d d8 00       	cmp    QWORD PTR [rbp-0x28],0x0
  402930:	75 29                	jne    40295b <deleteFileFromArchiv+0x393>
  402932:	8b 45 e8             	mov    eax,DWORD PTR [rbp-0x18]
  402935:	89 c6                	mov    esi,eax
  402937:	bf ac 39 40 00       	mov    edi,0x4039ac
  40293c:	b8 00 00 00 00       	mov    eax,0x0
  402941:	e8 1a e2 ff ff       	call   400b60 <printf@plt>
  402946:	48 8b 05 33 1c 20 00 	mov    rax,QWORD PTR [rip+0x201c33]        # 604580 <stdout@@GLIBC_2.2.5>
  40294d:	48 89 c7             	mov    rdi,rax
  402950:	e8 9b e3 ff ff       	call   400cf0 <fflush@plt>
  402955:	83 45 e8 0a          	add    DWORD PTR [rbp-0x18],0xa
  402959:	eb 3f                	jmp    40299a <deleteFileFromArchiv+0x3d2>
  40295b:	8b 45 e4             	mov    eax,DWORD PTR [rbp-0x1c]
  40295e:	48 98                	cdqe   
  402960:	48 89 c2             	mov    rdx,rax
  402963:	48 c1 fa 3f          	sar    rdx,0x3f
  402967:	48 f7 7d d8          	idiv   QWORD PTR [rbp-0x28]
  40296b:	48 89 d0             	mov    rax,rdx
  40296e:	48 85 c0             	test   rax,rax
  402971:	75 27                	jne    40299a <deleteFileFromArchiv+0x3d2>
  402973:	8b 45 e8             	mov    eax,DWORD PTR [rbp-0x18]
  402976:	89 c6                	mov    esi,eax
  402978:	bf ac 39 40 00       	mov    edi,0x4039ac
  40297d:	b8 00 00 00 00       	mov    eax,0x0
  402982:	e8 d9 e1 ff ff       	call   400b60 <printf@plt>
  402987:	48 8b 05 f2 1b 20 00 	mov    rax,QWORD PTR [rip+0x201bf2]        # 604580 <stdout@@GLIBC_2.2.5>
  40298e:	48 89 c7             	mov    rdi,rax
  402991:	e8 5a e3 ff ff       	call   400cf0 <fflush@plt>
  402996:	83 45 e8 0a          	add    DWORD PTR [rbp-0x18],0xa
  40299a:	83 45 e4 01          	add    DWORD PTR [rbp-0x1c],0x1
  40299e:	8b 45 e4             	mov    eax,DWORD PTR [rbp-0x1c]
  4029a1:	48 98                	cdqe   
  4029a3:	48 3b 45 f0          	cmp    rax,QWORD PTR [rbp-0x10]
  4029a7:	0f 8c be fd ff ff    	jl     40276b <deleteFileFromArchiv+0x1a3>
  4029ad:	48 8d 95 60 ff ff ff 	lea    rdx,[rbp-0xa0]
  4029b4:	48 8b 85 48 ff ff ff 	mov    rax,QWORD PTR [rbp-0xb8]
  4029bb:	48 89 d6             	mov    rsi,rdx
  4029be:	48 89 c7             	mov    rdi,rax
  4029c1:	e8 6a e2 ff ff       	call   400c30 <MD5_Final@plt>
  4029c6:	eb 27                	jmp    4029ef <deleteFileFromArchiv+0x427>
  4029c8:	8b 45 e8             	mov    eax,DWORD PTR [rbp-0x18]
  4029cb:	89 c6                	mov    esi,eax
  4029cd:	bf ac 39 40 00       	mov    edi,0x4039ac
  4029d2:	b8 00 00 00 00       	mov    eax,0x0
  4029d7:	e8 84 e1 ff ff       	call   400b60 <printf@plt>
  4029dc:	48 8b 05 9d 1b 20 00 	mov    rax,QWORD PTR [rip+0x201b9d]        # 604580 <stdout@@GLIBC_2.2.5>
  4029e3:	48 89 c7             	mov    rdi,rax
  4029e6:	e8 05 e3 ff ff       	call   400cf0 <fflush@plt>
  4029eb:	83 45 e8 0a          	add    DWORD PTR [rbp-0x18],0xa
  4029ef:	83 7d e8 6d          	cmp    DWORD PTR [rbp-0x18],0x6d
  4029f3:	7e d3                	jle    4029c8 <deleteFileFromArchiv+0x400>
  4029f5:	bf b6 39 40 00       	mov    edi,0x4039b6
  4029fa:	e8 91 e1 ff ff       	call   400b90 <puts@plt>
  4029ff:	c9                   	leave  
  402a00:	c3                   	ret    

0000000000402a01 <checkHashOfPassword>:
  402a01:	55                   	push   rbp
  402a02:	48 89 e5             	mov    rbp,rsp
  402a05:	48 83 ec 70          	sub    rsp,0x70
  402a09:	48 89 7d 98          	mov    QWORD PTR [rbp-0x68],rdi
  402a0d:	48 8d 45 a0          	lea    rax,[rbp-0x60]
  402a11:	48 89 c7             	mov    rdi,rax
  402a14:	e8 d7 e1 ff ff       	call   400bf0 <SHA1_Init@plt>
  402a19:	48 8b 45 98          	mov    rax,QWORD PTR [rbp-0x68]
  402a1d:	48 89 c7             	mov    rdi,rax
  402a20:	e8 db e1 ff ff       	call   400c00 <strlen@plt>
  402a25:	48 89 c2             	mov    rdx,rax
  402a28:	48 8b 4d 98          	mov    rcx,QWORD PTR [rbp-0x68]
  402a2c:	48 8d 45 a0          	lea    rax,[rbp-0x60]
  402a30:	48 89 ce             	mov    rsi,rcx
  402a33:	48 89 c7             	mov    rdi,rax
  402a36:	e8 55 e2 ff ff       	call   400c90 <SHA1_Update@plt>
  402a3b:	48 8d 45 a0          	lea    rax,[rbp-0x60]
  402a3f:	48 89 c6             	mov    rsi,rax
  402a42:	bf a0 45 60 00       	mov    edi,0x6045a0
  402a47:	e8 04 e2 ff ff       	call   400c50 <SHA1_Final@plt>
  402a4c:	c9                   	leave  
  402a4d:	c3                   	ret    

0000000000402a4e <verifyArchiv>:
  402a4e:	55                   	push   rbp
  402a4f:	48 89 e5             	mov    rbp,rsp
  402a52:	48 81 ec d0 00 00 00 	sub    rsp,0xd0
  402a59:	48 89 bd 38 ff ff ff 	mov    QWORD PTR [rbp-0xc8],rdi
  402a60:	48 8b 85 38 ff ff ff 	mov    rax,QWORD PTR [rbp-0xc8]
  402a67:	ba 00 00 00 00       	mov    edx,0x0
  402a6c:	be 0c 00 00 00       	mov    esi,0xc
  402a71:	48 89 c7             	mov    rdi,rax
  402a74:	e8 27 e1 ff ff       	call   400ba0 <fseek@plt>
  402a79:	48 8b 95 38 ff ff ff 	mov    rdx,QWORD PTR [rbp-0xc8]
  402a80:	48 8d 45 e0          	lea    rax,[rbp-0x20]
  402a84:	48 89 d1             	mov    rcx,rdx
  402a87:	ba 14 00 00 00       	mov    edx,0x14
  402a8c:	be 01 00 00 00       	mov    esi,0x1
  402a91:	48 89 c7             	mov    rdi,rax
  402a94:	e8 c7 e1 ff ff       	call   400c60 <fread@plt>
  402a99:	c7 45 fc 00 00 00 00 	mov    DWORD PTR [rbp-0x4],0x0
  402aa0:	eb 44                	jmp    402ae6 <verifyArchiv+0x98>


  402aa2:	8b 55 fc             	mov    edx,DWORD PTR [rbp-0x4]
  402aa5:	89 d0                	mov    eax,edx
  402aa7:	c1 e0 03             	shl    eax,0x3
  402aaa:	89 c1                	mov    ecx,eax
  402aac:	29 d1                	sub    ecx,edx
  402aae:	ba 67 66 66 66       	mov    edx,0x66666667
  402ab3:	89 c8                	mov    eax,ecx
  402ab5:	f7 ea                	imul   edx
  402ab7:	c1 fa 03             	sar    edx,0x3
  402aba:	89 c8                	mov    eax,ecx
  402abc:	c1 f8 1f             	sar    eax,0x1f
  402abf:	29 c2                	sub    edx,eax
  402ac1:	89 d0                	mov    eax,edx
  402ac3:	c1 e0 02             	shl    eax,0x2
  402ac6:	01 d0                	add    eax,edx
  402ac8:	c1 e0 02             	shl    eax,0x2
  402acb:	89 ca                	mov    edx,ecx
  402acd:	29 c2                	sub    edx,eax
  402acf:	48 63 c2             	movsxd rax,edx
  402ad2:	0f b6 90 a0 45 60 00 	movzx  edx,BYTE PTR [rax+0x6045a0]
  402ad9:	8b 45 fc             	mov    eax,DWORD PTR [rbp-0x4]
  402adc:	48 98                	cdqe   
  402ade:	88 54 05 a0          	mov    BYTE PTR [rbp+rax*1-0x60],dl
  402ae2:	83 45 fc 01          	add    DWORD PTR [rbp-0x4],0x1
  402ae6:	83 7d fc 13          	cmp    DWORD PTR [rbp-0x4],0x13
  402aea:	7e b6                	jle    402aa2 <verifyArchiv+0x54>



  402aec:	48 8d 85 40 ff ff ff 	lea    rax,[rbp-0xc0]
  402af3:	48 89 c7             	mov    rdi,rax
  402af6:	e8 f5 e0 ff ff       	call   400bf0 <SHA1_Init@plt>
  402afb:	48 8d 4d a0          	lea    rcx,[rbp-0x60]
  402aff:	48 8d 85 40 ff ff ff 	lea    rax,[rbp-0xc0]
  402b06:	ba 14 00 00 00       	mov    edx,0x14
  402b0b:	48 89 ce             	mov    rsi,rcx
  402b0e:	48 89 c7             	mov    rdi,rax
  402b11:	e8 7a e1 ff ff       	call   400c90 <SHA1_Update@plt>
  402b16:	48 8d 95 40 ff ff ff 	lea    rdx,[rbp-0xc0]
  402b1d:	48 8d 45 c0          	lea    rax,[rbp-0x40]
  402b21:	48 89 d6             	mov    rsi,rdx
  402b24:	48 89 c7             	mov    rdi,rax
  402b27:	e8 24 e1 ff ff       	call   400c50 <SHA1_Final@plt>
  402b2c:	c7 45 fc 00 00 00 00 	mov    DWORD PTR [rbp-0x4],0x0
  402b33:	eb 23                	jmp    402b58 <verifyArchiv+0x10a>
  402b35:	8b 45 fc             	mov    eax,DWORD PTR [rbp-0x4]
  402b38:	48 98                	cdqe   
  402b3a:	0f b6 54 05 c0       	movzx  edx,BYTE PTR [rbp+rax*1-0x40]
  402b3f:	8b 45 fc             	mov    eax,DWORD PTR [rbp-0x4]
  402b42:	48 98                	cdqe   
  402b44:	0f b6 44 05 e0       	movzx  eax,BYTE PTR [rbp+rax*1-0x20]
  402b49:	38 c2                	cmp    dl,al
  402b4b:	74 07                	je     402b54 <verifyArchiv+0x106>
  402b4d:	b8 00 00 00 00       	mov    eax,0x0
  402b52:	eb 0f                	jmp    402b63 <verifyArchiv+0x115>
  402b54:	83 45 fc 01          	add    DWORD PTR [rbp-0x4],0x1
  402b58:	83 7d fc 13          	cmp    DWORD PTR [rbp-0x4],0x13
  402b5c:	7e d7                	jle    402b35 <verifyArchiv+0xe7>
  402b5e:	b8 01 00 00 00       	mov    eax,0x1
  402b63:	c9                   	leave  
  402b64:	c3                   	ret    

0000000000402b65 <main>:
  402b65:	55                   	push   rbp
  402b66:	48 89 e5             	mov    rbp,rsp
  402b69:	48 81 ec 60 01 00 00 	sub    rsp,0x160
  402b70:	89 bd ac fe ff ff    	mov    DWORD PTR [rbp-0x154],edi
  402b76:	48 89 b5 a0 fe ff ff 	mov    QWORD PTR [rbp-0x160],rsi
  402b7d:	bf 78 3a 40 00       	mov    edi,0x403a78
  402b82:	e8 09 e0 ff ff       	call   400b90 <puts@plt>
  402b87:	bf d0 3a 40 00       	mov    edi,0x403ad0
  402b8c:	e8 ff df ff ff       	call   400b90 <puts@plt>
  402b91:	bf 00 3b 40 00       	mov    edi,0x403b00
  402b96:	e8 f5 df ff ff       	call   400b90 <puts@plt>
  402b9b:	bf 78 3a 40 00       	mov    edi,0x403a78
  402ba0:	e8 eb df ff ff       	call   400b90 <puts@plt>
  402ba5:	83 bd ac fe ff ff 04 	cmp    DWORD PTR [rbp-0x154],0x4
  402bac:	0f 85 e5 00 00 00    	jne    402c97 <main+0x132>
  402bb2:	48 8b 85 a0 fe ff ff 	mov    rax,QWORD PTR [rbp-0x160]
  402bb9:	48 83 c0 08          	add    rax,0x8
  402bbd:	48 8b 00             	mov    rax,QWORD PTR [rax]
  402bc0:	48 89 c6             	mov    rsi,rax
  402bc3:	bf 4c 3b 40 00       	mov    edi,0x403b4c
  402bc8:	e8 a3 e0 ff ff       	call   400c70 <strcmp@plt>
  402bcd:	85 c0                	test   eax,eax
  402bcf:	0f 85 c2 00 00 00    	jne    402c97 <main+0x132>
  402bd5:	48 8b 85 a0 fe ff ff 	mov    rax,QWORD PTR [rbp-0x160]
  402bdc:	48 83 c0 18          	add    rax,0x18
  402be0:	48 8b 00             	mov    rax,QWORD PTR [rax]
  402be3:	48 89 c7             	mov    rdi,rax
  402be6:	e8 16 fe ff ff       	call   402a01 <checkHashOfPassword>
  402beb:	48 8b 85 a0 fe ff ff 	mov    rax,QWORD PTR [rbp-0x160]
  402bf2:	48 83 c0 10          	add    rax,0x10
  402bf6:	48 8b 00             	mov    rax,QWORD PTR [rax]
  402bf9:	be 04 00 00 00       	mov    esi,0x4
  402bfe:	48 89 c7             	mov    rdi,rax
  402c01:	e8 ba e0 ff ff       	call   400cc0 <access@plt>
  402c06:	83 f8 ff             	cmp    eax,0xffffffff
  402c09:	74 78                	je     402c83 <main+0x11e>
  402c0b:	48 8b 85 a0 fe ff ff 	mov    rax,QWORD PTR [rbp-0x160]
  402c12:	48 83 c0 10          	add    rax,0x10
  402c16:	48 8b 00             	mov    rax,QWORD PTR [rax]
  402c19:	be 4f 3b 40 00       	mov    esi,0x403b4f
  402c1e:	48 89 c7             	mov    rdi,rax
  402c21:	e8 aa df ff ff       	call   400bd0 <fopen@plt>
  402c26:	48 89 45 f8          	mov    QWORD PTR [rbp-0x8],rax
  402c2a:	48 8b 45 f8          	mov    rax,QWORD PTR [rbp-0x8]
  402c2e:	48 89 c7             	mov    rdi,rax
  402c31:	e8 64 ef ff ff       	call   401b9a <encryptDecryptData>
  402c36:	85 c0                	test   eax,eax
  402c38:	75 14                	jne    402c4e <main+0xe9>
  402c3a:	bf 58 3b 40 00       	mov    edi,0x403b58
  402c3f:	e8 4c df ff ff       	call   400b90 <puts@plt>
  402c44:	b8 01 00 00 00       	mov    eax,0x1
  402c49:	e9 71 0c 00 00       	jmp    4038bf <main+0xd5a>
  402c4e:	48 8b 45 f8          	mov    rax,QWORD PTR [rbp-0x8]
  402c52:	48 89 c7             	mov    rdi,rax
  402c55:	e8 f4 fd ff ff       	call   402a4e <verifyArchiv>
  402c5a:	85 c0                	test   eax,eax
  402c5c:	75 14                	jne    402c72 <main+0x10d>
  402c5e:	bf 78 3b 40 00       	mov    edi,0x403b78
  402c63:	e8 28 df ff ff       	call   400b90 <puts@plt>
  402c68:	b8 01 00 00 00       	mov    eax,0x1
  402c6d:	e9 4d 0c 00 00       	jmp    4038bf <main+0xd5a>
  402c72:	48 8b 45 f8          	mov    rax,QWORD PTR [rbp-0x8]
  402c76:	48 89 c7             	mov    rdi,rax
  402c79:	e8 29 f0 ff ff       	call   401ca7 <writeFileToArchiv>
  402c7e:	e9 2b 0c 00 00       	jmp    4038ae <main+0xd49>
  402c83:	bf 98 3b 40 00       	mov    edi,0x403b98
  402c88:	e8 03 df ff ff       	call   400b90 <puts@plt>
  402c8d:	b8 01 00 00 00       	mov    eax,0x1
  402c92:	e9 28 0c 00 00       	jmp    4038bf <main+0xd5a>
  402c97:	83 bd ac fe ff ff 05 	cmp    DWORD PTR [rbp-0x154],0x5
  402c9e:	0f 85 e5 06 00 00    	jne    403389 <main+0x824>
  402ca4:	48 8b 85 a0 fe ff ff 	mov    rax,QWORD PTR [rbp-0x160]
  402cab:	48 83 c0 08          	add    rax,0x8
  402caf:	48 8b 00             	mov    rax,QWORD PTR [rax]
  402cb2:	48 89 c6             	mov    rsi,rax
  402cb5:	bf c3 3b 40 00       	mov    edi,0x403bc3
  402cba:	e8 b1 df ff ff       	call   400c70 <strcmp@plt>
  402cbf:	85 c0                	test   eax,eax
  402cc1:	0f 85 c2 06 00 00    	jne    403389 <main+0x824>
  402cc7:	48 8b 85 a0 fe ff ff 	mov    rax,QWORD PTR [rbp-0x160]
  402cce:	48 83 c0 18          	add    rax,0x18
  402cd2:	48 8b 00             	mov    rax,QWORD PTR [rax]
  402cd5:	48 89 c7             	mov    rdi,rax
  402cd8:	e8 24 fd ff ff       	call   402a01 <checkHashOfPassword>
  402cdd:	48 8b 85 a0 fe ff ff 	mov    rax,QWORD PTR [rbp-0x160]
  402ce4:	48 83 c0 10          	add    rax,0x10
  402ce8:	48 8b 00             	mov    rax,QWORD PTR [rax]
  402ceb:	be 00 00 00 00       	mov    esi,0x0
  402cf0:	48 89 c7             	mov    rdi,rax
  402cf3:	e8 c8 df ff ff       	call   400cc0 <access@plt>
  402cf8:	83 f8 ff             	cmp    eax,0xffffffff
  402cfb:	0f 84 4f 02 00 00    	je     402f50 <main+0x3eb>
  402d01:	48 8b 85 a0 fe ff ff 	mov    rax,QWORD PTR [rbp-0x160]
  402d08:	48 83 c0 10          	add    rax,0x10
  402d0c:	48 8b 00             	mov    rax,QWORD PTR [rax]
  402d0f:	be 06 00 00 00       	mov    esi,0x6
  402d14:	48 89 c7             	mov    rdi,rax
  402d17:	e8 a4 df ff ff       	call   400cc0 <access@plt>
  402d1c:	83 f8 ff             	cmp    eax,0xffffffff
  402d1f:	0f 84 17 02 00 00    	je     402f3c <main+0x3d7>
  402d25:	48 8b 85 a0 fe ff ff 	mov    rax,QWORD PTR [rbp-0x160]
  402d2c:	48 83 c0 10          	add    rax,0x10
  402d30:	48 8b 00             	mov    rax,QWORD PTR [rax]
  402d33:	be c6 3b 40 00       	mov    esi,0x403bc6
  402d38:	48 89 c7             	mov    rdi,rax
  402d3b:	e8 90 de ff ff       	call   400bd0 <fopen@plt>
  402d40:	48 89 45 f8          	mov    QWORD PTR [rbp-0x8],rax
  402d44:	48 8b 45 f8          	mov    rax,QWORD PTR [rbp-0x8]
  402d48:	48 89 c7             	mov    rdi,rax
  402d4b:	e8 4a ee ff ff       	call   401b9a <encryptDecryptData>
  402d50:	85 c0                	test   eax,eax
  402d52:	75 14                	jne    402d68 <main+0x203>
  402d54:	bf 58 3b 40 00       	mov    edi,0x403b58
  402d59:	e8 32 de ff ff       	call   400b90 <puts@plt>
  402d5e:	b8 01 00 00 00       	mov    eax,0x1
  402d63:	e9 57 0b 00 00       	jmp    4038bf <main+0xd5a>
  402d68:	48 8b 45 f8          	mov    rax,QWORD PTR [rbp-0x8]
  402d6c:	48 89 c7             	mov    rdi,rax
  402d6f:	e8 da fc ff ff       	call   402a4e <verifyArchiv>
  402d74:	85 c0                	test   eax,eax
  402d76:	75 14                	jne    402d8c <main+0x227>
  402d78:	bf 78 3b 40 00       	mov    edi,0x403b78
  402d7d:	e8 0e de ff ff       	call   400b90 <puts@plt>
  402d82:	b8 01 00 00 00       	mov    eax,0x1
  402d87:	e9 33 0b 00 00       	jmp    4038bf <main+0xd5a>
  402d8c:	48 8b 85 a0 fe ff ff 	mov    rax,QWORD PTR [rbp-0x160]
  402d93:	48 83 c0 20          	add    rax,0x20
  402d97:	48 8b 00             	mov    rax,QWORD PTR [rax]
  402d9a:	be 04 00 00 00       	mov    esi,0x4
  402d9f:	48 89 c7             	mov    rdi,rax
  402da2:	e8 19 df ff ff       	call   400cc0 <access@plt>
  402da7:	83 f8 ff             	cmp    eax,0xffffffff
  402daa:	74 64                	je     402e10 <main+0x2ab>
  402dac:	48 8b 85 a0 fe ff ff 	mov    rax,QWORD PTR [rbp-0x160]
  402db3:	48 83 c0 20          	add    rax,0x20
  402db7:	48 8b 00             	mov    rax,QWORD PTR [rax]
  402dba:	be 4f 3b 40 00       	mov    esi,0x403b4f
  402dbf:	48 89 c7             	mov    rdi,rax
  402dc2:	e8 09 de ff ff       	call   400bd0 <fopen@plt>
  402dc7:	48 89 45 e8          	mov    QWORD PTR [rbp-0x18],rax
  402dcb:	48 8b 45 e8          	mov    rax,QWORD PTR [rbp-0x18]
  402dcf:	ba 02 00 00 00       	mov    edx,0x2
  402dd4:	be 00 00 00 00       	mov    esi,0x0
  402dd9:	48 89 c7             	mov    rdi,rax
  402ddc:	e8 bf dd ff ff       	call   400ba0 <fseek@plt>
  402de1:	48 8b 45 e8          	mov    rax,QWORD PTR [rbp-0x18]
  402de5:	48 89 c7             	mov    rdi,rax
  402de8:	e8 83 dd ff ff       	call   400b70 <ftell@plt>
  402ded:	48 89 45 e0          	mov    QWORD PTR [rbp-0x20],rax
  402df1:	48 8b 45 e8          	mov    rax,QWORD PTR [rbp-0x18]
  402df5:	ba 00 00 00 00       	mov    edx,0x0
  402dfa:	be 00 00 00 00       	mov    esi,0x0
  402dff:	48 89 c7             	mov    rdi,rax
  402e02:	e8 99 dd ff ff       	call   400ba0 <fseek@plt>
  402e07:	48 83 7d e0 00       	cmp    QWORD PTR [rbp-0x20],0x0
  402e0c:	7e 16                	jle    402e24 <main+0x2bf>
  402e0e:	eb 28                	jmp    402e38 <main+0x2d3>
  402e10:	bf d0 3b 40 00       	mov    edi,0x403bd0
  402e15:	e8 76 dd ff ff       	call   400b90 <puts@plt>
  402e1a:	b8 01 00 00 00       	mov    eax,0x1
  402e1f:	e9 9b 0a 00 00       	jmp    4038bf <main+0xd5a>
  402e24:	bf f8 3b 40 00       	mov    edi,0x403bf8
  402e29:	e8 62 dd ff ff       	call   400b90 <puts@plt>
  402e2e:	b8 01 00 00 00       	mov    eax,0x1
  402e33:	e9 87 0a 00 00       	jmp    4038bf <main+0xd5a>
  402e38:	48 8b 85 a0 fe ff ff 	mov    rax,QWORD PTR [rbp-0x160]
  402e3f:	48 83 c0 20          	add    rax,0x20
  402e43:	48 8b 00             	mov    rax,QWORD PTR [rax]
  402e46:	48 8d 95 b0 fe ff ff 	lea    rdx,[rbp-0x150]
  402e4d:	48 89 d6             	mov    rsi,rdx
  402e50:	48 89 c7             	mov    rdi,rax
  402e53:	e8 3e e0 ff ff       	call   400e96 <createHashOfPassword>
  402e58:	48 8d 95 b0 fe ff ff 	lea    rdx,[rbp-0x150]
  402e5f:	48 8b 45 f8          	mov    rax,QWORD PTR [rbp-0x8]
  402e63:	48 89 d6             	mov    rsi,rdx
  402e66:	48 89 c7             	mov    rdi,rax
  402e69:	e8 7f f1 ff ff       	call   401fed <extractFileFromArchiv>
  402e6e:	48 85 c0             	test   rax,rax
  402e71:	74 14                	je     402e87 <main+0x322>
  402e73:	bf 18 3c 40 00       	mov    edi,0x403c18
  402e78:	e8 13 dd ff ff       	call   400b90 <puts@plt>
  402e7d:	b8 00 00 00 00       	mov    eax,0x0
  402e82:	e9 38 0a 00 00       	jmp    4038bf <main+0xd5a>
  402e87:	48 8b 85 a0 fe ff ff 	mov    rax,QWORD PTR [rbp-0x160]
  402e8e:	48 83 c0 20          	add    rax,0x20
  402e92:	48 8b 10             	mov    rdx,QWORD PTR [rax]
  402e95:	48 8d 4d a0          	lea    rcx,[rbp-0x60]
  402e99:	48 8b 75 e8          	mov    rsi,QWORD PTR [rbp-0x18]
  402e9d:	48 8b 45 f8          	mov    rax,QWORD PTR [rbp-0x8]
  402ea1:	48 89 c7             	mov    rdi,rax
  402ea4:	e8 5d e5 ff ff       	call   401406 <findNextFreeChunk>
  402ea9:	48 89 45 d8          	mov    QWORD PTR [rbp-0x28],rax
  402ead:	48 8b 4d d8          	mov    rcx,QWORD PTR [rbp-0x28]
  402eb1:	48 8d 55 90          	lea    rdx,[rbp-0x70]
  402eb5:	48 8b 75 e8          	mov    rsi,QWORD PTR [rbp-0x18]
  402eb9:	48 8b 45 f8          	mov    rax,QWORD PTR [rbp-0x8]
  402ebd:	48 89 c7             	mov    rdi,rax
  402ec0:	e8 7e e1 ff ff       	call   401043 <searchFileInArchiv>
  402ec5:	48 8b 4d a0          	mov    rcx,QWORD PTR [rbp-0x60]
  402ec9:	48 8b 45 f8          	mov    rax,QWORD PTR [rbp-0x8]
  402ecd:	ba 00 00 00 00       	mov    edx,0x0
  402ed2:	48 89 ce             	mov    rsi,rcx
  402ed5:	48 89 c7             	mov    rdi,rax
  402ed8:	e8 c3 dc ff ff       	call   400ba0 <fseek@plt>
  402edd:	48 8d 45 90          	lea    rax,[rbp-0x70]
  402ee1:	be 10 00 00 00       	mov    esi,0x10
  402ee6:	48 89 c7             	mov    rdi,rax
  402ee9:	e8 1e df ff ff       	call   400e0c <sanitizeFilename>
  402eee:	48 8b 55 f8          	mov    rdx,QWORD PTR [rbp-0x8]
  402ef2:	48 8d 45 90          	lea    rax,[rbp-0x70]
  402ef6:	48 89 d1             	mov    rcx,rdx
  402ef9:	ba 10 00 00 00       	mov    edx,0x10
  402efe:	be 01 00 00 00       	mov    esi,0x1
  402f03:	48 89 c7             	mov    rdi,rax
  402f06:	e8 d5 dd ff ff       	call   400ce0 <fwrite@plt>
  402f0b:	48 8b 85 a0 fe ff ff 	mov    rax,QWORD PTR [rbp-0x160]
  402f12:	48 83 c0 20          	add    rax,0x20
  402f16:	48 8b 00             	mov    rax,QWORD PTR [rax]
  402f19:	48 89 c6             	mov    rsi,rax
  402f1c:	bf 40 3c 40 00       	mov    edi,0x403c40
  402f21:	b8 00 00 00 00       	mov    eax,0x0
  402f26:	e8 35 dc ff ff       	call   400b60 <printf@plt>
  402f2b:	48 8b 45 e8          	mov    rax,QWORD PTR [rbp-0x18]
  402f2f:	48 89 c7             	mov    rdi,rax
  402f32:	e8 69 dd ff ff       	call   400ca0 <fclose@plt>
  402f37:	e9 72 09 00 00       	jmp    4038ae <main+0xd49>
  402f3c:	bf 70 3c 40 00       	mov    edi,0x403c70
  402f41:	e8 4a dc ff ff       	call   400b90 <puts@plt>
  402f46:	b8 01 00 00 00       	mov    eax,0x1
  402f4b:	e9 6f 09 00 00       	jmp    4038bf <main+0xd5a>
  402f50:	48 8b 85 a0 fe ff ff 	mov    rax,QWORD PTR [rbp-0x160]
  402f57:	48 83 c0 10          	add    rax,0x10
  402f5b:	48 8b 00             	mov    rax,QWORD PTR [rax]
  402f5e:	be 9c 3c 40 00       	mov    esi,0x403c9c
  402f63:	48 89 c7             	mov    rdi,rax
  402f66:	e8 65 dc ff ff       	call   400bd0 <fopen@plt>
  402f6b:	48 89 45 f8          	mov    QWORD PTR [rbp-0x8],rax
  402f6f:	48 8b 85 a0 fe ff ff 	mov    rax,QWORD PTR [rbp-0x160]
  402f76:	48 83 c0 20          	add    rax,0x20
  402f7a:	48 8b 00             	mov    rax,QWORD PTR [rax]
  402f7d:	be 04 00 00 00       	mov    esi,0x4
  402f82:	48 89 c7             	mov    rdi,rax
  402f85:	e8 36 dd ff ff       	call   400cc0 <access@plt>
  402f8a:	83 f8 ff             	cmp    eax,0xffffffff
  402f8d:	74 64                	je     402ff3 <main+0x48e>
  402f8f:	48 8b 85 a0 fe ff ff 	mov    rax,QWORD PTR [rbp-0x160]
  402f96:	48 83 c0 20          	add    rax,0x20
  402f9a:	48 8b 00             	mov    rax,QWORD PTR [rax]
  402f9d:	be 4f 3b 40 00       	mov    esi,0x403b4f
  402fa2:	48 89 c7             	mov    rdi,rax
  402fa5:	e8 26 dc ff ff       	call   400bd0 <fopen@plt>
  402faa:	48 89 45 e8          	mov    QWORD PTR [rbp-0x18],rax
  402fae:	48 8b 45 e8          	mov    rax,QWORD PTR [rbp-0x18]
  402fb2:	ba 02 00 00 00       	mov    edx,0x2
  402fb7:	be 00 00 00 00       	mov    esi,0x0
  402fbc:	48 89 c7             	mov    rdi,rax
  402fbf:	e8 dc db ff ff       	call   400ba0 <fseek@plt>
  402fc4:	48 8b 45 e8          	mov    rax,QWORD PTR [rbp-0x18]
  402fc8:	48 89 c7             	mov    rdi,rax
  402fcb:	e8 a0 db ff ff       	call   400b70 <ftell@plt>
  402fd0:	48 89 45 d0          	mov    QWORD PTR [rbp-0x30],rax
  402fd4:	48 8b 45 e8          	mov    rax,QWORD PTR [rbp-0x18]
  402fd8:	ba 00 00 00 00       	mov    edx,0x0
  402fdd:	be 00 00 00 00       	mov    esi,0x0
  402fe2:	48 89 c7             	mov    rdi,rax
  402fe5:	e8 b6 db ff ff       	call   400ba0 <fseek@plt>
  402fea:	48 83 7d d0 00       	cmp    QWORD PTR [rbp-0x30],0x0
  402fef:	7e 16                	jle    403007 <main+0x4a2>
  402ff1:	eb 28                	jmp    40301b <main+0x4b6>
  402ff3:	bf d0 3b 40 00       	mov    edi,0x403bd0
  402ff8:	e8 93 db ff ff       	call   400b90 <puts@plt>
  402ffd:	b8 01 00 00 00       	mov    eax,0x1
  403002:	e9 b8 08 00 00       	jmp    4038bf <main+0xd5a>
  403007:	bf f8 3b 40 00       	mov    edi,0x403bf8
  40300c:	e8 7f db ff ff       	call   400b90 <puts@plt>
  403011:	b8 01 00 00 00       	mov    eax,0x1
  403016:	e9 a4 08 00 00       	jmp    4038bf <main+0xd5a>
  40301b:	48 8b 45 f8          	mov    rax,QWORD PTR [rbp-0x8]
  40301f:	48 89 c1             	mov    rcx,rax
  403022:	ba 0c 00 00 00       	mov    edx,0xc
  403027:	be 01 00 00 00       	mov    esi,0x1
  40302c:	bf 80 39 40 00       	mov    edi,0x403980
  403031:	e8 aa dc ff ff       	call   400ce0 <fwrite@plt>
  403036:	c7 45 f4 00 00 00 00 	mov    DWORD PTR [rbp-0xc],0x0
  40303d:	eb 47                	jmp    403086 <main+0x521>
  40303f:	8b 55 f4             	mov    edx,DWORD PTR [rbp-0xc]
  403042:	89 d0                	mov    eax,edx
  403044:	c1 e0 03             	shl    eax,0x3
  403047:	89 c1                	mov    ecx,eax
  403049:	29 d1                	sub    ecx,edx
  40304b:	ba 67 66 66 66       	mov    edx,0x66666667
  403050:	89 c8                	mov    eax,ecx
  403052:	f7 ea                	imul   edx
  403054:	c1 fa 03             	sar    edx,0x3
  403057:	89 c8                	mov    eax,ecx
  403059:	c1 f8 1f             	sar    eax,0x1f
  40305c:	29 c2                	sub    edx,eax
  40305e:	89 d0                	mov    eax,edx
  403060:	c1 e0 02             	shl    eax,0x2
  403063:	01 d0                	add    eax,edx
  403065:	c1 e0 02             	shl    eax,0x2
  403068:	89 ca                	mov    edx,ecx
  40306a:	29 c2                	sub    edx,eax
  40306c:	48 63 c2             	movsxd rax,edx
  40306f:	0f b6 90 a0 45 60 00 	movzx  edx,BYTE PTR [rax+0x6045a0]
  403076:	8b 45 f4             	mov    eax,DWORD PTR [rbp-0xc]
  403079:	48 98                	cdqe   
  40307b:	88 94 05 50 ff ff ff 	mov    BYTE PTR [rbp+rax*1-0xb0],dl
  403082:	83 45 f4 01          	add    DWORD PTR [rbp-0xc],0x1
  403086:	83 7d f4 13          	cmp    DWORD PTR [rbp-0xc],0x13
  40308a:	7e b3                	jle    40303f <main+0x4da>
  40308c:	48 8d 85 b0 fe ff ff 	lea    rax,[rbp-0x150]
  403093:	48 89 c7             	mov    rdi,rax
  403096:	e8 55 db ff ff       	call   400bf0 <SHA1_Init@plt>
  40309b:	48 8d 8d 50 ff ff ff 	lea    rcx,[rbp-0xb0]
  4030a2:	48 8d 85 b0 fe ff ff 	lea    rax,[rbp-0x150]
  4030a9:	ba 14 00 00 00       	mov    edx,0x14
  4030ae:	48 89 ce             	mov    rsi,rcx
  4030b1:	48 89 c7             	mov    rdi,rax
  4030b4:	e8 d7 db ff ff       	call   400c90 <SHA1_Update@plt>
  4030b9:	48 8d 95 b0 fe ff ff 	lea    rdx,[rbp-0x150]
  4030c0:	48 8d 85 70 ff ff ff 	lea    rax,[rbp-0x90]
  4030c7:	48 89 d6             	mov    rsi,rdx
  4030ca:	48 89 c7             	mov    rdi,rax
  4030cd:	e8 7e db ff ff       	call   400c50 <SHA1_Final@plt>
  4030d2:	48 8b 55 f8          	mov    rdx,QWORD PTR [rbp-0x8]
  4030d6:	48 8d 85 70 ff ff ff 	lea    rax,[rbp-0x90]
  4030dd:	48 89 d1             	mov    rcx,rdx
  4030e0:	ba 14 00 00 00       	mov    edx,0x14
  4030e5:	be 01 00 00 00       	mov    esi,0x1
  4030ea:	48 89 c7             	mov    rdi,rax
  4030ed:	e8 ee db ff ff       	call   400ce0 <fwrite@plt>
  4030f2:	48 8b 05 93 08 00 00 	mov    rax,QWORD PTR [rip+0x893]        # 40398c <MAGIC_VALUE_FILE_ENTRY_LIST>
  4030f9:	48 89 05 c0 14 20 00 	mov    QWORD PTR [rip+0x2014c0],rax        # 6045c0 <buffer>
  403100:	be 08 00 00 00       	mov    esi,0x8
  403105:	bf c0 45 60 00       	mov    edi,0x6045c0
  40310a:	e8 fd dc ff ff       	call   400e0c <sanitizeFilename>
  40310f:	48 8b 45 f8          	mov    rax,QWORD PTR [rbp-0x8]
  403113:	48 89 c1             	mov    rcx,rax
  403116:	ba 01 00 00 00       	mov    edx,0x1
  40311b:	be 08 00 00 00       	mov    esi,0x8
  403120:	bf c0 45 60 00       	mov    edi,0x6045c0
  403125:	e8 b6 db ff ff       	call   400ce0 <fwrite@plt>
  40312a:	c7 45 f4 00 00 00 00 	mov    DWORD PTR [rbp-0xc],0x0
  403131:	eb 10                	jmp    403143 <main+0x5de>
  403133:	8b 45 f4             	mov    eax,DWORD PTR [rbp-0xc]
  403136:	48 98                	cdqe   
  403138:	c6 80 c0 45 60 00 00 	mov    BYTE PTR [rax+0x6045c0],0x0
  40313f:	83 45 f4 01          	add    DWORD PTR [rbp-0xc],0x1
  403143:	81 7d f4 0f 04 00 00 	cmp    DWORD PTR [rbp-0xc],0x40f
  40314a:	7e e7                	jle    403133 <main+0x5ce>
  40314c:	be 08 00 00 00       	mov    esi,0x8
  403151:	bf c0 45 60 00       	mov    edi,0x6045c0
  403156:	e8 b1 dc ff ff       	call   400e0c <sanitizeFilename>
  40315b:	48 8b 45 f8          	mov    rax,QWORD PTR [rbp-0x8]
  40315f:	48 89 c1             	mov    rcx,rax
  403162:	ba 01 00 00 00       	mov    edx,0x1
  403167:	be 08 00 00 00       	mov    esi,0x8
  40316c:	bf c0 45 60 00       	mov    edi,0x6045c0
  403171:	e8 6a db ff ff       	call   400ce0 <fwrite@plt>
  403176:	c7 45 cc 08 00 00 00 	mov    DWORD PTR [rbp-0x34],0x8
  40317d:	c7 45 f4 00 00 00 00 	mov    DWORD PTR [rbp-0xc],0x0
  403184:	e9 fa 00 00 00       	jmp    403283 <main+0x71e>
  403189:	c7 45 f0 00 00 00 00 	mov    DWORD PTR [rbp-0x10],0x0
  403190:	eb 10                	jmp    4031a2 <main+0x63d>
  403192:	8b 45 f0             	mov    eax,DWORD PTR [rbp-0x10]
  403195:	48 98                	cdqe   
  403197:	c6 80 c0 45 60 00 00 	mov    BYTE PTR [rax+0x6045c0],0x0
  40319e:	83 45 f0 01          	add    DWORD PTR [rbp-0x10],0x1
  4031a2:	83 7d f0 07          	cmp    DWORD PTR [rbp-0x10],0x7
  4031a6:	7e ea                	jle    403192 <main+0x62d>
  4031a8:	be 08 00 00 00       	mov    esi,0x8
  4031ad:	bf c0 45 60 00       	mov    edi,0x6045c0
  4031b2:	e8 55 dc ff ff       	call   400e0c <sanitizeFilename>
  4031b7:	48 8b 45 f8          	mov    rax,QWORD PTR [rbp-0x8]
  4031bb:	48 89 c1             	mov    rcx,rax
  4031be:	ba 01 00 00 00       	mov    edx,0x1
  4031c3:	be 08 00 00 00       	mov    esi,0x8
  4031c8:	bf c0 45 60 00       	mov    edi,0x6045c0
  4031cd:	e8 0e db ff ff       	call   400ce0 <fwrite@plt>
  4031d2:	48 8b 45 f8          	mov    rax,QWORD PTR [rbp-0x8]
  4031d6:	48 89 c1             	mov    rcx,rax
  4031d9:	ba 01 00 00 00       	mov    edx,0x1
  4031de:	be 08 00 00 00       	mov    esi,0x8
  4031e3:	bf c0 45 60 00       	mov    edi,0x6045c0
  4031e8:	e8 f3 da ff ff       	call   400ce0 <fwrite@plt>
  4031ed:	c7 45 f0 00 00 00 00 	mov    DWORD PTR [rbp-0x10],0x0
  4031f4:	eb 10                	jmp    403206 <main+0x6a1>
  4031f6:	8b 45 f0             	mov    eax,DWORD PTR [rbp-0x10]
  4031f9:	48 98                	cdqe   
  4031fb:	c6 80 c0 45 60 00 00 	mov    BYTE PTR [rax+0x6045c0],0x0
  403202:	83 45 f0 01          	add    DWORD PTR [rbp-0x10],0x1
  403206:	83 7d f0 0f          	cmp    DWORD PTR [rbp-0x10],0xf
  40320a:	7e ea                	jle    4031f6 <main+0x691>
  40320c:	be 10 00 00 00       	mov    esi,0x10
  403211:	bf c0 45 60 00       	mov    edi,0x6045c0
  403216:	e8 f1 db ff ff       	call   400e0c <sanitizeFilename>
  40321b:	48 8b 45 f8          	mov    rax,QWORD PTR [rbp-0x8]
  40321f:	48 89 c1             	mov    rcx,rax
  403222:	ba 01 00 00 00       	mov    edx,0x1
  403227:	be 10 00 00 00       	mov    esi,0x10
  40322c:	bf c0 45 60 00       	mov    edi,0x6045c0
  403231:	e8 aa da ff ff       	call   400ce0 <fwrite@plt>
  403236:	c7 45 f0 00 00 00 00 	mov    DWORD PTR [rbp-0x10],0x0
  40323d:	eb 10                	jmp    40324f <main+0x6ea>
  40323f:	8b 45 f0             	mov    eax,DWORD PTR [rbp-0x10]
  403242:	48 98                	cdqe   
  403244:	c6 80 c0 45 60 00 00 	mov    BYTE PTR [rax+0x6045c0],0x0
  40324b:	83 45 f0 01          	add    DWORD PTR [rbp-0x10],0x1
  40324f:	83 7d f0 5f          	cmp    DWORD PTR [rbp-0x10],0x5f
  403253:	7e ea                	jle    40323f <main+0x6da>
  403255:	be 60 00 00 00       	mov    esi,0x60
  40325a:	bf c0 45 60 00       	mov    edi,0x6045c0
  40325f:	e8 a8 db ff ff       	call   400e0c <sanitizeFilename>
  403264:	48 8b 45 f8          	mov    rax,QWORD PTR [rbp-0x8]
  403268:	48 89 c1             	mov    rcx,rax
  40326b:	ba 01 00 00 00       	mov    edx,0x1
  403270:	be 60 00 00 00       	mov    esi,0x60
  403275:	bf c0 45 60 00       	mov    edi,0x6045c0
  40327a:	e8 61 da ff ff       	call   400ce0 <fwrite@plt>
  40327f:	83 45 f4 01          	add    DWORD PTR [rbp-0xc],0x1
  403283:	8b 45 f4             	mov    eax,DWORD PTR [rbp-0xc]
  403286:	3b 45 cc             	cmp    eax,DWORD PTR [rbp-0x34]
  403289:	0f 8c fa fe ff ff    	jl     403189 <main+0x624>
  40328f:	48 8b 45 f8          	mov    rax,QWORD PTR [rbp-0x8]
  403293:	ba 00 00 00 00       	mov    edx,0x0
  403298:	be 20 00 00 00       	mov    esi,0x20
  40329d:	48 89 c7             	mov    rdi,rax
  4032a0:	e8 fb d8 ff ff       	call   400ba0 <fseek@plt>
  4032a5:	48 8b 85 a0 fe ff ff 	mov    rax,QWORD PTR [rbp-0x160]
  4032ac:	48 83 c0 10          	add    rax,0x10
  4032b0:	48 8b 00             	mov    rax,QWORD PTR [rax]
  4032b3:	48 89 c6             	mov    rsi,rax
  4032b6:	bf a0 3c 40 00       	mov    edi,0x403ca0
  4032bb:	b8 00 00 00 00       	mov    eax,0x0
  4032c0:	e8 9b d8 ff ff       	call   400b60 <printf@plt>
  4032c5:	48 8b 85 a0 fe ff ff 	mov    rax,QWORD PTR [rbp-0x160]
  4032cc:	48 83 c0 20          	add    rax,0x20
  4032d0:	48 8b 10             	mov    rdx,QWORD PTR [rax]
  4032d3:	48 8d 8d 48 ff ff ff 	lea    rcx,[rbp-0xb8]
  4032da:	48 8b 75 e8          	mov    rsi,QWORD PTR [rbp-0x18]
  4032de:	48 8b 45 f8          	mov    rax,QWORD PTR [rbp-0x8]
  4032e2:	48 89 c7             	mov    rdi,rax
  4032e5:	e8 1c e1 ff ff       	call   401406 <findNextFreeChunk>
  4032ea:	48 89 45 c0          	mov    QWORD PTR [rbp-0x40],rax
  4032ee:	48 8b 4d c0          	mov    rcx,QWORD PTR [rbp-0x40]
  4032f2:	48 8d 95 30 ff ff ff 	lea    rdx,[rbp-0xd0]
  4032f9:	48 8b 75 e8          	mov    rsi,QWORD PTR [rbp-0x18]
  4032fd:	48 8b 45 f8          	mov    rax,QWORD PTR [rbp-0x8]
  403301:	48 89 c7             	mov    rdi,rax
  403304:	e8 3a dd ff ff       	call   401043 <searchFileInArchiv>
  403309:	48 8b 8d 48 ff ff ff 	mov    rcx,QWORD PTR [rbp-0xb8]
  403310:	48 8b 45 f8          	mov    rax,QWORD PTR [rbp-0x8]
  403314:	ba 00 00 00 00       	mov    edx,0x0
  403319:	48 89 ce             	mov    rsi,rcx
  40331c:	48 89 c7             	mov    rdi,rax
  40331f:	e8 7c d8 ff ff       	call   400ba0 <fseek@plt>
  403324:	48 8d 85 30 ff ff ff 	lea    rax,[rbp-0xd0]
  40332b:	be 10 00 00 00       	mov    esi,0x10
  403330:	48 89 c7             	mov    rdi,rax
  403333:	e8 d4 da ff ff       	call   400e0c <sanitizeFilename>
  403338:	48 8b 55 f8          	mov    rdx,QWORD PTR [rbp-0x8]
  40333c:	48 8d 85 30 ff ff ff 	lea    rax,[rbp-0xd0]
  403343:	48 89 d1             	mov    rcx,rdx
  403346:	ba 10 00 00 00       	mov    edx,0x10
  40334b:	be 01 00 00 00       	mov    esi,0x1
  403350:	48 89 c7             	mov    rdi,rax
  403353:	e8 88 d9 ff ff       	call   400ce0 <fwrite@plt>
  403358:	48 8b 85 a0 fe ff ff 	mov    rax,QWORD PTR [rbp-0x160]
  40335f:	48 83 c0 20          	add    rax,0x20
  403363:	48 8b 00             	mov    rax,QWORD PTR [rax]
  403366:	48 89 c6             	mov    rsi,rax
  403369:	bf 40 3c 40 00       	mov    edi,0x403c40
  40336e:	b8 00 00 00 00       	mov    eax,0x0
  403373:	e8 e8 d7 ff ff       	call   400b60 <printf@plt>
  403378:	48 8b 45 e8          	mov    rax,QWORD PTR [rbp-0x18]
  40337c:	48 89 c7             	mov    rdi,rax
  40337f:	e8 1c d9 ff ff       	call   400ca0 <fclose@plt>
  403384:	e9 25 05 00 00       	jmp    4038ae <main+0xd49>
  403389:	83 bd ac fe ff ff 05 	cmp    DWORD PTR [rbp-0x154],0x5
  403390:	0f 85 5c 03 00 00    	jne    4036f2 <main+0xb8d>
  403396:	48 8b 85 a0 fe ff ff 	mov    rax,QWORD PTR [rbp-0x160]
  40339d:	48 83 c0 08          	add    rax,0x8
  4033a1:	48 8b 00             	mov    rax,QWORD PTR [rax]
  4033a4:	48 89 c6             	mov    rsi,rax
  4033a7:	bf c1 3c 40 00       	mov    edi,0x403cc1
  4033ac:	e8 bf d8 ff ff       	call   400c70 <strcmp@plt>
  4033b1:	85 c0                	test   eax,eax
  4033b3:	0f 85 39 03 00 00    	jne    4036f2 <main+0xb8d>
  4033b9:	48 8b 85 a0 fe ff ff 	mov    rax,QWORD PTR [rbp-0x160]
  4033c0:	48 83 c0 18          	add    rax,0x18
  4033c4:	48 8b 00             	mov    rax,QWORD PTR [rax]
  4033c7:	48 89 c7             	mov    rdi,rax
  4033ca:	e8 32 f6 ff ff       	call   402a01 <checkHashOfPassword>
  4033cf:	48 8b 85 a0 fe ff ff 	mov    rax,QWORD PTR [rbp-0x160]
  4033d6:	48 83 c0 10          	add    rax,0x10
  4033da:	48 8b 00             	mov    rax,QWORD PTR [rax]
  4033dd:	be 04 00 00 00       	mov    esi,0x4
  4033e2:	48 89 c7             	mov    rdi,rax
  4033e5:	e8 d6 d8 ff ff       	call   400cc0 <access@plt>
  4033ea:	83 f8 ff             	cmp    eax,0xffffffff
  4033ed:	0f 84 eb 02 00 00    	je     4036de <main+0xb79>
  4033f3:	48 8b 85 a0 fe ff ff 	mov    rax,QWORD PTR [rbp-0x160]
  4033fa:	48 83 c0 10          	add    rax,0x10
  4033fe:	48 8b 00             	mov    rax,QWORD PTR [rax]
  403401:	be 4f 3b 40 00       	mov    esi,0x403b4f
  403406:	48 89 c7             	mov    rdi,rax
  403409:	e8 c2 d7 ff ff       	call   400bd0 <fopen@plt>
  40340e:	48 89 45 f8          	mov    QWORD PTR [rbp-0x8],rax
  403412:	48 8b 45 f8          	mov    rax,QWORD PTR [rbp-0x8]
  403416:	48 89 c7             	mov    rdi,rax
  403419:	e8 7c e7 ff ff       	call   401b9a <encryptDecryptData>
  40341e:	85 c0                	test   eax,eax
  403420:	75 14                	jne    403436 <main+0x8d1>
  403422:	bf 58 3b 40 00       	mov    edi,0x403b58
  403427:	e8 64 d7 ff ff       	call   400b90 <puts@plt>
  40342c:	b8 01 00 00 00       	mov    eax,0x1
  403431:	e9 89 04 00 00       	jmp    4038bf <main+0xd5a>
  403436:	48 8b 45 f8          	mov    rax,QWORD PTR [rbp-0x8]
  40343a:	48 89 c7             	mov    rdi,rax
  40343d:	e8 0c f6 ff ff       	call   402a4e <verifyArchiv>
  403442:	85 c0                	test   eax,eax
  403444:	75 14                	jne    40345a <main+0x8f5>
  403446:	bf 78 3b 40 00       	mov    edi,0x403b78
  40344b:	e8 40 d7 ff ff       	call   400b90 <puts@plt>
  403450:	b8 01 00 00 00       	mov    eax,0x1
  403455:	e9 65 04 00 00       	jmp    4038bf <main+0xd5a>
  40345a:	48 8b 85 a0 fe ff ff 	mov    rax,QWORD PTR [rbp-0x160]
  403461:	48 83 c0 20          	add    rax,0x20
  403465:	48 8b 10             	mov    rdx,QWORD PTR [rax]
  403468:	48 8b 45 f8          	mov    rax,QWORD PTR [rbp-0x8]
  40346c:	48 89 d6             	mov    rsi,rdx
  40346f:	48 89 c7             	mov    rdi,rax
  403472:	e8 76 eb ff ff       	call   401fed <extractFileFromArchiv>
  403477:	48 89 45 b8          	mov    QWORD PTR [rbp-0x48],rax
  40347b:	48 83 7d b8 00       	cmp    QWORD PTR [rbp-0x48],0x0
  403480:	75 14                	jne    403496 <main+0x931>
  403482:	bf c8 3c 40 00       	mov    edi,0x403cc8
  403487:	e8 04 d7 ff ff       	call   400b90 <puts@plt>
  40348c:	b8 00 00 00 00       	mov    eax,0x0
  403491:	e9 29 04 00 00       	jmp    4038bf <main+0xd5a>
  403496:	48 8b 85 a0 fe ff ff 	mov    rax,QWORD PTR [rbp-0x160]
  40349d:	48 83 c0 20          	add    rax,0x20
  4034a1:	48 8b 00             	mov    rax,QWORD PTR [rax]
  4034a4:	be 00 00 00 00       	mov    esi,0x0
  4034a9:	48 89 c7             	mov    rdi,rax
  4034ac:	e8 0f d8 ff ff       	call   400cc0 <access@plt>
  4034b1:	83 f8 ff             	cmp    eax,0xffffffff
  4034b4:	74 14                	je     4034ca <main+0x965>
  4034b6:	bf f0 3c 40 00       	mov    edi,0x403cf0
  4034bb:	e8 d0 d6 ff ff       	call   400b90 <puts@plt>
  4034c0:	b8 00 00 00 00       	mov    eax,0x0
  4034c5:	e9 f5 03 00 00       	jmp    4038bf <main+0xd5a>
  4034ca:	48 8b 85 a0 fe ff ff 	mov    rax,QWORD PTR [rbp-0x160]
  4034d1:	48 83 c0 20          	add    rax,0x20
  4034d5:	48 8b 00             	mov    rax,QWORD PTR [rax]
  4034d8:	be 2e 3d 40 00       	mov    esi,0x403d2e
  4034dd:	48 89 c7             	mov    rdi,rax
  4034e0:	e8 eb d6 ff ff       	call   400bd0 <fopen@plt>
  4034e5:	48 89 45 b0          	mov    QWORD PTR [rbp-0x50],rax
  4034e9:	48 8b 4d b8          	mov    rcx,QWORD PTR [rbp-0x48]
  4034ed:	48 8d 95 20 ff ff ff 	lea    rdx,[rbp-0xe0]
  4034f4:	48 8b 75 b0          	mov    rsi,QWORD PTR [rbp-0x50]
  4034f8:	48 8b 45 f8          	mov    rax,QWORD PTR [rbp-0x8]
  4034fc:	48 89 c7             	mov    rdi,rax
  4034ff:	e8 c4 f0 ff ff       	call   4025c8 <deleteFileFromArchiv>
  403504:	48 8b 45 b8          	mov    rax,QWORD PTR [rbp-0x48]
  403508:	48 8d 48 10          	lea    rcx,[rax+0x10]
  40350c:	48 8b 45 f8          	mov    rax,QWORD PTR [rbp-0x8]
  403510:	ba 00 00 00 00       	mov    edx,0x0
  403515:	48 89 ce             	mov    rsi,rcx
  403518:	48 89 c7             	mov    rdi,rax
  40351b:	e8 80 d6 ff ff       	call   400ba0 <fseek@plt>
  403520:	48 8b 55 f8          	mov    rdx,QWORD PTR [rbp-0x8]
  403524:	48 8d 85 10 ff ff ff 	lea    rax,[rbp-0xf0]
  40352b:	48 89 d1             	mov    rcx,rdx
  40352e:	ba 01 00 00 00       	mov    edx,0x1
  403533:	be 10 00 00 00       	mov    esi,0x10
  403538:	48 89 c7             	mov    rdi,rax
  40353b:	e8 20 d7 ff ff       	call   400c60 <fread@plt>
  403540:	48 8d 85 10 ff ff ff 	lea    rax,[rbp-0xf0]
  403547:	be 10 00 00 00       	mov    esi,0x10
  40354c:	48 89 c7             	mov    rdi,rax
  40354f:	e8 b8 d8 ff ff       	call   400e0c <sanitizeFilename>
  403554:	0f b6 95 10 ff ff ff 	movzx  edx,BYTE PTR [rbp-0xf0]
  40355b:	0f b6 85 20 ff ff ff 	movzx  eax,BYTE PTR [rbp-0xe0]
  403562:	38 c2                	cmp    dl,al
  403564:	0f 85 54 01 00 00    	jne    4036be <main+0xb59>
  40356a:	0f b6 95 11 ff ff ff 	movzx  edx,BYTE PTR [rbp-0xef]
  403571:	0f b6 85 21 ff ff ff 	movzx  eax,BYTE PTR [rbp-0xdf]
  403578:	38 c2                	cmp    dl,al
  40357a:	0f 85 3e 01 00 00    	jne    4036be <main+0xb59>
  403580:	0f b6 95 12 ff ff ff 	movzx  edx,BYTE PTR [rbp-0xee]
  403587:	0f b6 85 22 ff ff ff 	movzx  eax,BYTE PTR [rbp-0xde]
  40358e:	38 c2                	cmp    dl,al
  403590:	0f 85 28 01 00 00    	jne    4036be <main+0xb59>
  403596:	0f b6 95 13 ff ff ff 	movzx  edx,BYTE PTR [rbp-0xed]
  40359d:	0f b6 85 23 ff ff ff 	movzx  eax,BYTE PTR [rbp-0xdd]
  4035a4:	38 c2                	cmp    dl,al
  4035a6:	0f 85 12 01 00 00    	jne    4036be <main+0xb59>
  4035ac:	0f b6 95 14 ff ff ff 	movzx  edx,BYTE PTR [rbp-0xec]
  4035b3:	0f b6 85 24 ff ff ff 	movzx  eax,BYTE PTR [rbp-0xdc]
  4035ba:	38 c2                	cmp    dl,al
  4035bc:	0f 85 fc 00 00 00    	jne    4036be <main+0xb59>
  4035c2:	0f b6 95 15 ff ff ff 	movzx  edx,BYTE PTR [rbp-0xeb]
  4035c9:	0f b6 85 25 ff ff ff 	movzx  eax,BYTE PTR [rbp-0xdb]
  4035d0:	38 c2                	cmp    dl,al
  4035d2:	0f 85 e6 00 00 00    	jne    4036be <main+0xb59>
  4035d8:	0f b6 95 16 ff ff ff 	movzx  edx,BYTE PTR [rbp-0xea]
  4035df:	0f b6 85 26 ff ff ff 	movzx  eax,BYTE PTR [rbp-0xda]
  4035e6:	38 c2                	cmp    dl,al
  4035e8:	0f 85 d0 00 00 00    	jne    4036be <main+0xb59>
  4035ee:	0f b6 95 17 ff ff ff 	movzx  edx,BYTE PTR [rbp-0xe9]
  4035f5:	0f b6 85 27 ff ff ff 	movzx  eax,BYTE PTR [rbp-0xd9]
  4035fc:	38 c2                	cmp    dl,al
  4035fe:	0f 85 ba 00 00 00    	jne    4036be <main+0xb59>
  403604:	0f b6 95 18 ff ff ff 	movzx  edx,BYTE PTR [rbp-0xe8]
  40360b:	0f b6 85 28 ff ff ff 	movzx  eax,BYTE PTR [rbp-0xd8]
  403612:	38 c2                	cmp    dl,al
  403614:	0f 85 a4 00 00 00    	jne    4036be <main+0xb59>
  40361a:	0f b6 95 19 ff ff ff 	movzx  edx,BYTE PTR [rbp-0xe7]
  403621:	0f b6 85 29 ff ff ff 	movzx  eax,BYTE PTR [rbp-0xd7]
  403628:	38 c2                	cmp    dl,al
  40362a:	0f 85 8e 00 00 00    	jne    4036be <main+0xb59>
  403630:	0f b6 95 1a ff ff ff 	movzx  edx,BYTE PTR [rbp-0xe6]
  403637:	0f b6 85 2a ff ff ff 	movzx  eax,BYTE PTR [rbp-0xd6]
  40363e:	38 c2                	cmp    dl,al
  403640:	75 7c                	jne    4036be <main+0xb59>
  403642:	0f b6 95 1b ff ff ff 	movzx  edx,BYTE PTR [rbp-0xe5]
  403649:	0f b6 85 2b ff ff ff 	movzx  eax,BYTE PTR [rbp-0xd5]
  403650:	38 c2                	cmp    dl,al
  403652:	75 6a                	jne    4036be <main+0xb59>
  403654:	0f b6 95 1c ff ff ff 	movzx  edx,BYTE PTR [rbp-0xe4]
  40365b:	0f b6 85 2c ff ff ff 	movzx  eax,BYTE PTR [rbp-0xd4]
  403662:	38 c2                	cmp    dl,al
  403664:	75 58                	jne    4036be <main+0xb59>
  403666:	0f b6 95 1d ff ff ff 	movzx  edx,BYTE PTR [rbp-0xe3]
  40366d:	0f b6 85 2d ff ff ff 	movzx  eax,BYTE PTR [rbp-0xd3]
  403674:	38 c2                	cmp    dl,al
  403676:	75 46                	jne    4036be <main+0xb59>
  403678:	0f b6 95 1e ff ff ff 	movzx  edx,BYTE PTR [rbp-0xe2]
  40367f:	0f b6 85 2e ff ff ff 	movzx  eax,BYTE PTR [rbp-0xd2]
  403686:	38 c2                	cmp    dl,al
  403688:	75 34                	jne    4036be <main+0xb59>
  40368a:	0f b6 95 1f ff ff ff 	movzx  edx,BYTE PTR [rbp-0xe1]
  403691:	0f b6 85 2f ff ff ff 	movzx  eax,BYTE PTR [rbp-0xd1]
  403698:	38 c2                	cmp    dl,al
  40369a:	75 22                	jne    4036be <main+0xb59>
  40369c:	48 8b 85 a0 fe ff ff 	mov    rax,QWORD PTR [rbp-0x160]
  4036a3:	48 83 c0 20          	add    rax,0x20
  4036a7:	48 8b 00             	mov    rax,QWORD PTR [rax]
  4036aa:	48 89 c6             	mov    rsi,rax
  4036ad:	bf 30 3d 40 00       	mov    edi,0x403d30
  4036b2:	b8 00 00 00 00       	mov    eax,0x0
  4036b7:	e8 a4 d4 ff ff       	call   400b60 <printf@plt>
  4036bc:	eb 0f                	jmp    4036cd <main+0xb68>
  4036be:	bf 68 3d 40 00       	mov    edi,0x403d68
  4036c3:	b8 00 00 00 00       	mov    eax,0x0
  4036c8:	e8 93 d4 ff ff       	call   400b60 <printf@plt>
  4036cd:	48 8b 45 b0          	mov    rax,QWORD PTR [rbp-0x50]
  4036d1:	48 89 c7             	mov    rdi,rax
  4036d4:	e8 c7 d5 ff ff       	call   400ca0 <fclose@plt>
  4036d9:	e9 d0 01 00 00       	jmp    4038ae <main+0xd49>
  4036de:	bf 98 3b 40 00       	mov    edi,0x403b98
  4036e3:	e8 a8 d4 ff ff       	call   400b90 <puts@plt>
  4036e8:	b8 01 00 00 00       	mov    eax,0x1
  4036ed:	e9 cd 01 00 00       	jmp    4038bf <main+0xd5a>
  4036f2:	83 bd ac fe ff ff 05 	cmp    DWORD PTR [rbp-0x154],0x5
  4036f9:	0f 85 46 01 00 00    	jne    403845 <main+0xce0>
  4036ff:	48 8b 85 a0 fe ff ff 	mov    rax,QWORD PTR [rbp-0x160]
  403706:	48 83 c0 08          	add    rax,0x8
  40370a:	48 8b 00             	mov    rax,QWORD PTR [rax]
  40370d:	48 89 c6             	mov    rsi,rax
  403710:	bf a3 3d 40 00       	mov    edi,0x403da3
  403715:	e8 56 d5 ff ff       	call   400c70 <strcmp@plt>
  40371a:	85 c0                	test   eax,eax
  40371c:	0f 85 23 01 00 00    	jne    403845 <main+0xce0>
  403722:	48 8b 85 a0 fe ff ff 	mov    rax,QWORD PTR [rbp-0x160]
  403729:	48 83 c0 18          	add    rax,0x18
  40372d:	48 8b 00             	mov    rax,QWORD PTR [rax]
  403730:	48 89 c7             	mov    rdi,rax
  403733:	e8 c9 f2 ff ff       	call   402a01 <checkHashOfPassword>
  403738:	48 8b 85 a0 fe ff ff 	mov    rax,QWORD PTR [rbp-0x160]
  40373f:	48 83 c0 10          	add    rax,0x10
  403743:	48 8b 00             	mov    rax,QWORD PTR [rax]
  403746:	be 06 00 00 00       	mov    esi,0x6
  40374b:	48 89 c7             	mov    rdi,rax
  40374e:	e8 6d d5 ff ff       	call   400cc0 <access@plt>
  403753:	83 f8 ff             	cmp    eax,0xffffffff
  403756:	0f 84 d8 00 00 00    	je     403834 <main+0xccf>
  40375c:	48 8b 85 a0 fe ff ff 	mov    rax,QWORD PTR [rbp-0x160]
  403763:	48 83 c0 10          	add    rax,0x10
  403767:	48 8b 00             	mov    rax,QWORD PTR [rax]
  40376a:	be c6 3b 40 00       	mov    esi,0x403bc6
  40376f:	48 89 c7             	mov    rdi,rax
  403772:	e8 59 d4 ff ff       	call   400bd0 <fopen@plt>
  403777:	48 89 45 f8          	mov    QWORD PTR [rbp-0x8],rax
  40377b:	48 8b 45 f8          	mov    rax,QWORD PTR [rbp-0x8]
  40377f:	48 89 c7             	mov    rdi,rax
  403782:	e8 13 e4 ff ff       	call   401b9a <encryptDecryptData>
  403787:	85 c0                	test   eax,eax
  403789:	75 14                	jne    40379f <main+0xc3a>
  40378b:	bf 58 3b 40 00       	mov    edi,0x403b58
  403790:	e8 fb d3 ff ff       	call   400b90 <puts@plt>
  403795:	b8 01 00 00 00       	mov    eax,0x1
  40379a:	e9 20 01 00 00       	jmp    4038bf <main+0xd5a>
  40379f:	48 8b 45 f8          	mov    rax,QWORD PTR [rbp-0x8]
  4037a3:	48 89 c7             	mov    rdi,rax
  4037a6:	e8 a3 f2 ff ff       	call   402a4e <verifyArchiv>
  4037ab:	85 c0                	test   eax,eax
  4037ad:	75 14                	jne    4037c3 <main+0xc5e>
  4037af:	bf 78 3b 40 00       	mov    edi,0x403b78
  4037b4:	e8 d7 d3 ff ff       	call   400b90 <puts@plt>
  4037b9:	b8 01 00 00 00       	mov    eax,0x1
  4037be:	e9 fc 00 00 00       	jmp    4038bf <main+0xd5a>
  4037c3:	48 8b 85 a0 fe ff ff 	mov    rax,QWORD PTR [rbp-0x160]
  4037ca:	48 83 c0 20          	add    rax,0x20
  4037ce:	48 8b 10             	mov    rdx,QWORD PTR [rax]
  4037d1:	48 8b 45 f8          	mov    rax,QWORD PTR [rbp-0x8]
  4037d5:	48 89 d6             	mov    rsi,rdx
  4037d8:	48 89 c7             	mov    rdi,rax
  4037db:	e8 0d e8 ff ff       	call   401fed <extractFileFromArchiv>
  4037e0:	48 89 45 a8          	mov    QWORD PTR [rbp-0x58],rax
  4037e4:	48 83 7d a8 00       	cmp    QWORD PTR [rbp-0x58],0x0
  4037e9:	75 14                	jne    4037ff <main+0xc9a>
  4037eb:	bf c8 3c 40 00       	mov    edi,0x403cc8
  4037f0:	e8 9b d3 ff ff       	call   400b90 <puts@plt>
  4037f5:	b8 00 00 00 00       	mov    eax,0x0
  4037fa:	e9 c0 00 00 00       	jmp    4038bf <main+0xd5a>
  4037ff:	48 8b 55 a8          	mov    rdx,QWORD PTR [rbp-0x58]
  403803:	48 8b 45 f8          	mov    rax,QWORD PTR [rbp-0x8]
  403807:	48 89 d6             	mov    rsi,rdx
  40380a:	48 89 c7             	mov    rdi,rax
  40380d:	e8 6b ea ff ff       	call   40227d <listAllFilesInArchiv>
  403812:	48 8b 85 a0 fe ff ff 	mov    rax,QWORD PTR [rbp-0x160]
  403819:	48 83 c0 20          	add    rax,0x20
  40381d:	48 8b 00             	mov    rax,QWORD PTR [rax]
  403820:	48 89 c6             	mov    rsi,rax
  403823:	bf a8 3d 40 00       	mov    edi,0x403da8
  403828:	b8 00 00 00 00       	mov    eax,0x0
  40382d:	e8 2e d3 ff ff       	call   400b60 <printf@plt>
  403832:	eb 7a                	jmp    4038ae <main+0xd49>
  403834:	bf 70 3c 40 00       	mov    edi,0x403c70
  403839:	e8 52 d3 ff ff       	call   400b90 <puts@plt>
  40383e:	b8 01 00 00 00       	mov    eax,0x1
  403843:	eb 7a                	jmp    4038bf <main+0xd5a>
  403845:	bf d7 3d 40 00       	mov    edi,0x403dd7
  40384a:	e8 41 d3 ff ff       	call   400b90 <puts@plt>
  40384f:	bf 0a 00 00 00       	mov    edi,0xa
  403854:	e8 67 d3 ff ff       	call   400bc0 <putchar@plt>
  403859:	48 8b 85 a0 fe ff ff 	mov    rax,QWORD PTR [rbp-0x160]
  403860:	48 8b 00             	mov    rax,QWORD PTR [rax]
  403863:	48 89 c6             	mov    rsi,rax
  403866:	bf f8 3d 40 00       	mov    edi,0x403df8
  40386b:	b8 00 00 00 00       	mov    eax,0x0
  403870:	e8 eb d2 ff ff       	call   400b60 <printf@plt>
  403875:	bf 28 3e 40 00       	mov    edi,0x403e28
  40387a:	e8 11 d3 ff ff       	call   400b90 <puts@plt>
  40387f:	bf 38 3e 40 00       	mov    edi,0x403e38
  403884:	e8 07 d3 ff ff       	call   400b90 <puts@plt>
  403889:	bf 70 3e 40 00       	mov    edi,0x403e70
  40388e:	e8 fd d2 ff ff       	call   400b90 <puts@plt>
  403893:	bf e0 3e 40 00       	mov    edi,0x403ee0
  403898:	e8 f3 d2 ff ff       	call   400b90 <puts@plt>
  40389d:	bf 38 3f 40 00       	mov    edi,0x403f38
  4038a2:	e8 e9 d2 ff ff       	call   400b90 <puts@plt>
  4038a7:	b8 00 00 00 00       	mov    eax,0x0
  4038ac:	eb 11                	jmp    4038bf <main+0xd5a>
  4038ae:	48 8b 45 f8          	mov    rax,QWORD PTR [rbp-0x8]
  4038b2:	48 89 c7             	mov    rdi,rax
  4038b5:	e8 e6 d3 ff ff       	call   400ca0 <fclose@plt>
  4038ba:	b8 00 00 00 00       	mov    eax,0x0
  4038bf:	c9                   	leave  
  4038c0:	c3                   	ret    
  4038c1:	90                   	nop
  4038c2:	90                   	nop
  4038c3:	90                   	nop
  4038c4:	90                   	nop
  4038c5:	90                   	nop
  4038c6:	90                   	nop
  4038c7:	90                   	nop
  4038c8:	90                   	nop
  4038c9:	90                   	nop
  4038ca:	90                   	nop
  4038cb:	90                   	nop
  4038cc:	90                   	nop
  4038cd:	90                   	nop
  4038ce:	90                   	nop
  4038cf:	90                   	nop

00000000004038d0 <__libc_csu_fini>:
  4038d0:	f3 c3                	repz ret 
  4038d2:	66 66 66 66 66 2e 0f 	data32 data32 data32 data32 nop WORD PTR cs:[rax+rax*1+0x0]
  4038d9:	1f 84 00 00 00 00 00 

00000000004038e0 <__libc_csu_init>:
  4038e0:	48 89 6c 24 d8       	mov    QWORD PTR [rsp-0x28],rbp
  4038e5:	4c 89 64 24 e0       	mov    QWORD PTR [rsp-0x20],r12
  4038ea:	48 8d 2d 67 09 20 00 	lea    rbp,[rip+0x200967]        # 604258 <__init_array_end>
  4038f1:	4c 8d 25 58 09 20 00 	lea    r12,[rip+0x200958]        # 604250 <__frame_dummy_init_array_entry>
  4038f8:	4c 89 6c 24 e8       	mov    QWORD PTR [rsp-0x18],r13
  4038fd:	4c 89 74 24 f0       	mov    QWORD PTR [rsp-0x10],r14
  403902:	4c 89 7c 24 f8       	mov    QWORD PTR [rsp-0x8],r15
  403907:	48 89 5c 24 d0       	mov    QWORD PTR [rsp-0x30],rbx
  40390c:	48 83 ec 38          	sub    rsp,0x38
  403910:	4c 29 e5             	sub    rbp,r12
  403913:	41 89 fd             	mov    r13d,edi
  403916:	49 89 f6             	mov    r14,rsi
  403919:	48 c1 fd 03          	sar    rbp,0x3
  40391d:	49 89 d7             	mov    r15,rdx
  403920:	e8 0b d2 ff ff       	call   400b30 <_init>
  403925:	48 85 ed             	test   rbp,rbp
  403928:	74 1c                	je     403946 <__libc_csu_init+0x66>
  40392a:	31 db                	xor    ebx,ebx
  40392c:	0f 1f 40 00          	nop    DWORD PTR [rax+0x0]
  403930:	4c 89 fa             	mov    rdx,r15
  403933:	4c 89 f6             	mov    rsi,r14
  403936:	44 89 ef             	mov    edi,r13d
  403939:	41 ff 14 dc          	call   QWORD PTR [r12+rbx*8]
  40393d:	48 83 c3 01          	add    rbx,0x1
  403941:	48 39 eb             	cmp    rbx,rbp
  403944:	72 ea                	jb     403930 <__libc_csu_init+0x50>
  403946:	48 8b 5c 24 08       	mov    rbx,QWORD PTR [rsp+0x8]
  40394b:	48 8b 6c 24 10       	mov    rbp,QWORD PTR [rsp+0x10]
  403950:	4c 8b 64 24 18       	mov    r12,QWORD PTR [rsp+0x18]
  403955:	4c 8b 6c 24 20       	mov    r13,QWORD PTR [rsp+0x20]
  40395a:	4c 8b 74 24 28       	mov    r14,QWORD PTR [rsp+0x28]
  40395f:	4c 8b 7c 24 30       	mov    r15,QWORD PTR [rsp+0x30]
  403964:	48 83 c4 38          	add    rsp,0x38
  403968:	c3                   	ret    
  403969:	90                   	nop
  40396a:	90                   	nop
  40396b:	90                   	nop

Disassembly of section .fini:

000000000040396c <_fini>:
  40396c:	48 83 ec 08          	sub    rsp,0x8
  403970:	48 83 c4 08          	add    rsp,0x8
  403974:	c3                   	ret    
